
build/telosb/main.exe:     file format elf32-msp430


Disassembly of section .text:

00004000 <__watchdog_support>:
    4000:	55 42 20 01 	mov.b	&0x0120,r5	
    4004:	35 d0 08 5a 	bis	#23048,	r5	;#0x5a08
    4008:	82 45 70 12 	mov	r5,	&0x1270	

0000400c <__init_stack>:
    400c:	31 40 00 39 	mov	#14592,	r1	;#0x3900

00004010 <__do_copy_data>:
    4010:	3f 40 16 00 	mov	#22,	r15	;#0x0016
    4014:	0f 93       	tst	r15		
    4016:	08 24       	jz	$+18     	;abs 0x4028
    4018:	92 42 70 12 20 01 	mov	&0x1270,&0x0120	
    401e:	2f 83       	decd	r15		
    4020:	9f 4f 80 6c 00 11 	mov	27776(r15),4352(r15);0x6c80(r15), 0x1100(r15)
    4026:	f8 23       	jnz	$-14     	;abs 0x4018

00004028 <__do_clear_bss>:
    4028:	3f 40 5a 01 	mov	#346,	r15	;#0x015a
    402c:	0f 93       	tst	r15		
    402e:	07 24       	jz	$+16     	;abs 0x403e
    4030:	92 42 70 12 20 01 	mov	&0x1270,&0x0120	
    4036:	1f 83       	dec	r15		
    4038:	cf 43 16 11 	mov.b	#0,	4374(r15);r3 As==00, 0x1116(r15)
    403c:	f9 23       	jnz	$-12     	;abs 0x4030

0000403e <main>:
    403e:	21 83       	decd	r1		
    4040:	b0 12 a2 48 	call	#0x48a2	
    4044:	47 4f       	mov.b	r15,	r7	
    4046:	3d 40 0e 00 	mov	#14,	r13	;#0x000e
    404a:	3e 40 ff 00 	mov	#255,	r14	;#0x00ff
    404e:	3f 40 52 11 	mov	#4434,	r15	;#0x1152
    4052:	b0 12 c2 6b 	call	#0x6bc2	
    4056:	f2 43 5d 12 	mov.b	#-1,	&0x125d	;r3 As==11
    405a:	f2 43 6d 12 	mov.b	#-1,	&0x126d	;r3 As==11
    405e:	b2 40 80 5a 20 01 	mov	#23168,	&0x0120	;#0x5a80
    4064:	a2 42 60 01 	mov	#4,	&0x0160	;r2 As==10
    4068:	82 43 2e 01 	mov	#0,	&0x012e	;r3 As==00
    406c:	a2 42 80 01 	mov	#4,	&0x0180	;r2 As==10
    4070:	82 43 1e 01 	mov	#0,	&0x011e	;r3 As==00
    4074:	b2 40 20 02 60 01 	mov	#544,	&0x0160	;#0x0220
    407a:	b2 40 20 01 80 01 	mov	#288,	&0x0180	;#0x0120
    4080:	f2 40 84 ff 57 00 	mov.b	#-124,	&0x0057	;#0xff84
    4086:	c2 43 58 00 	mov.b	#0,	&0x0058	;r3 As==00
    408a:	b2 40 00 40 82 01 	mov	#16384,	&0x0182	;#0x4000
    4090:	3b 40 0c 00 	mov	#12,	r11	;#0x000c
    4094:	3d 40 00 08 	mov	#2048,	r13	;#0x0800
    4098:	0e 43       	clr	r14		
    409a:	0c 4d       	mov	r13,	r12	
    409c:	0c de       	bis	r14,	r12	
    409e:	59 42 57 00 	mov.b	&0x0057,r9	
    40a2:	0a 4c       	mov	r12,	r10	
    40a4:	8a 10       	swpb	r10		
    40a6:	7a f0 07 00 	and.b	#7,	r10	;#0x0007
    40aa:	79 f0 f8 ff 	and.b	#-8,	r9	;#0xfff8
    40ae:	4a d9       	bis.b	r9,	r10	
    40b0:	c2 4a 57 00 	mov.b	r10,	&0x0057	
    40b4:	c2 4c 56 00 	mov.b	r12,	&0x0056	
    40b8:	79 40 03 00 	mov.b	#3,	r9	;#0x0003
    40bc:	0a 43       	clr	r10		
    40be:	08 43       	clr	r8		
    40c0:	0f 3c       	jmp	$+32     	;abs 0x40e0
    40c2:	18 42 90 01 	mov	&0x0190,r8	
    40c6:	38 52       	add	#8,	r8	;r2 As==11
    40c8:	82 48 92 01 	mov	r8,	&0x0192	
    40cc:	b2 f0 fe ff 82 01 	and	#-2,	&0x0182	;#0xfffe
    40d2:	92 b3 82 01 	bit	#1,	&0x0182	;r3 As==01
    40d6:	fd 27       	jz	$-4      	;abs 0x40d2
    40d8:	1f 42 70 01 	mov	&0x0170,r15	
    40dc:	08 4a       	mov	r10,	r8	
    40de:	0a 4f       	mov	r15,	r10	
    40e0:	79 53       	add.b	#-1,	r9	;r3 As==11
    40e2:	ef 23       	jnz	$-32     	;abs 0x40c2
    40e4:	0a 88       	sub	r8,	r10	
    40e6:	3a 90 01 04 	cmp	#1025,	r10	;#0x0401
    40ea:	01 2c       	jc	$+4      	;abs 0x40ee
    40ec:	0e 4c       	mov	r12,	r14	
    40ee:	0d 11       	rra	r13		
    40f0:	3b 53       	add	#-1,	r11	;r3 As==11
    40f2:	d3 23       	jnz	$-88     	;abs 0x409a
    40f4:	0f 4e       	mov	r14,	r15	
    40f6:	3f f0 e0 00 	and	#224,	r15	;#0x00e0
    40fa:	3f 90 e0 00 	cmp	#224,	r15	;#0x00e0
    40fe:	02 20       	jnz	$+6      	;abs 0x4104
    4100:	3e f0 e0 ff 	and	#-32,	r14	;#0xffe0
    4104:	5c 42 57 00 	mov.b	&0x0057,r12	
    4108:	0d 4e       	mov	r14,	r13	
    410a:	8d 10       	swpb	r13		
    410c:	7d f0 07 00 	and.b	#7,	r13	;#0x0007
    4110:	7c f0 f8 ff 	and.b	#-8,	r12	;#0xfff8
    4114:	4d dc       	bis.b	r12,	r13	
    4116:	c2 4d 57 00 	mov.b	r13,	&0x0057	
    411a:	c2 4e 56 00 	mov.b	r14,	&0x0056	
    411e:	5e 42 57 00 	mov.b	&0x0057,r14	
    4122:	7e f0 07 00 	and.b	#7,	r14	;#0x0007
    4126:	7e d0 80 ff 	bis.b	#-128,	r14	;#0xff80
    412a:	c2 4e 57 00 	mov.b	r14,	&0x0057	
    412e:	e2 42 58 00 	mov.b	#4,	&0x0058	;r2 As==10
    4132:	f2 f0 fd ff 00 00 	and.b	#-3,	&0x0000	;#0xfffd
    4138:	82 43 70 01 	mov	#0,	&0x0170	;r3 As==00
    413c:	b2 40 02 02 60 01 	mov	#514,	&0x0160	;#0x0202
    4142:	82 43 90 01 	mov	#0,	&0x0190	;r3 As==00
    4146:	b2 40 02 01 80 01 	mov	#258,	&0x0180	;#0x0102
    414c:	1e 42 60 01 	mov	&0x0160,r14	
    4150:	3e f0 cf ff 	and	#-49,	r14	;#0xffcf
    4154:	3e d0 20 00 	bis	#32,	r14	;#0x0020
    4158:	82 4e 60 01 	mov	r14,	&0x0160	
    415c:	1e 42 80 01 	mov	&0x0180,r14	
    4160:	3e f0 cf ff 	and	#-49,	r14	;#0xffcf
    4164:	3e d0 20 00 	bis	#32,	r14	;#0x0020
    4168:	82 4e 80 01 	mov	r14,	&0x0180	
    416c:	c2 43 26 00 	mov.b	#0,	&0x0026	;r3 As==00
    4170:	c2 43 2e 00 	mov.b	#0,	&0x002e	;r3 As==00
    4174:	c2 43 1b 00 	mov.b	#0,	&0x001b	;r3 As==00
    4178:	c2 43 1f 00 	mov.b	#0,	&0x001f	;r3 As==00
    417c:	c2 43 33 00 	mov.b	#0,	&0x0033	;r3 As==00
    4180:	c2 43 37 00 	mov.b	#0,	&0x0037	;r3 As==00
    4184:	c2 43 21 00 	mov.b	#0,	&0x0021	;r3 As==00
    4188:	f2 40 e0 ff 22 00 	mov.b	#-32,	&0x0022	;#0xffe0
    418e:	f2 40 30 00 29 00 	mov.b	#48,	&0x0029	;#0x0030
    4194:	f2 40 7b 00 2a 00 	mov.b	#123,	&0x002a	;#0x007b
    419a:	c2 43 19 00 	mov.b	#0,	&0x0019	;r3 As==00
    419e:	f2 40 f1 ff 1a 00 	mov.b	#-15,	&0x001a	;#0xfff1
    41a4:	f2 40 dd ff 1d 00 	mov.b	#-35,	&0x001d	;#0xffdd
    41aa:	f2 40 fd ff 1e 00 	mov.b	#-3,	&0x001e	;#0xfffd
    41b0:	f2 43 31 00 	mov.b	#-1,	&0x0031	;r3 As==11
    41b4:	f2 43 32 00 	mov.b	#-1,	&0x0032	;r3 As==11
    41b8:	c2 43 35 00 	mov.b	#0,	&0x0035	;r3 As==00
    41bc:	f2 43 36 00 	mov.b	#-1,	&0x0036	;r3 As==11
    41c0:	c2 43 25 00 	mov.b	#0,	&0x0025	;r3 As==00
    41c4:	c2 43 2d 00 	mov.b	#0,	&0x002d	;r3 As==00
    41c8:	1f 42 70 01 	mov	&0x0170,r15	
    41cc:	1e 42 70 01 	mov	&0x0170,r14	
    41d0:	0e 8f       	sub	r15,	r14	
    41d2:	3e 90 01 28 	cmp	#10241,	r14	;#0x2801
    41d6:	fa 2b       	jnc	$-10     	;abs 0x41cc
    41d8:	e2 d3 1a 00 	bis.b	#2,	&0x001a	;r3 As==10
    41dc:	f2 d2 1a 00 	bis.b	#8,	&0x001a	;r2 As==11
    41e0:	f2 d0 80 ff 1e 00 	bis.b	#-128,	&0x001e	;#0xff80
    41e6:	f2 d0 10 00 1e 00 	bis.b	#16,	&0x001e	;#0x0010
    41ec:	f2 d0 80 ff 1d 00 	bis.b	#-128,	&0x001d	;#0xff80
    41f2:	f2 d0 10 00 1d 00 	bis.b	#16,	&0x001d	;#0x0010
    41f8:	03 43       	nop			
    41fa:	03 43       	nop			
    41fc:	f2 f0 ef ff 1d 00 	and.b	#-17,	&0x001d	;#0xffef
    4202:	f2 f0 f7 ff 19 00 	and.b	#-9,	&0x0019	;#0xfff7
    4208:	5f 43       	mov.b	#1,	r15	;r3 As==01
    420a:	b0 12 02 46 	call	#0x4602	
    420e:	4f 43       	clr.b	r15		
    4210:	b0 12 02 46 	call	#0x4602	
    4214:	5f 43       	mov.b	#1,	r15	;r3 As==01
    4216:	b0 12 02 46 	call	#0x4602	
    421a:	5f 43       	mov.b	#1,	r15	;r3 As==01
    421c:	b0 12 02 46 	call	#0x4602	
    4220:	5f 43       	mov.b	#1,	r15	;r3 As==01
    4222:	b0 12 02 46 	call	#0x4602	
    4226:	4f 43       	clr.b	r15		
    4228:	b0 12 02 46 	call	#0x4602	
    422c:	4f 43       	clr.b	r15		
    422e:	b0 12 02 46 	call	#0x4602	
    4232:	5f 43       	mov.b	#1,	r15	;r3 As==01
    4234:	b0 12 02 46 	call	#0x4602	
    4238:	f2 d0 10 00 1d 00 	bis.b	#16,	&0x001d	;#0x0010
    423e:	f2 d2 19 00 	bis.b	#8,	&0x0019	;r2 As==11
    4242:	e2 d3 19 00 	bis.b	#2,	&0x0019	;r3 As==10
    4246:	f2 d0 10 00 32 00 	bis.b	#16,	&0x0032	;#0x0010
    424c:	f2 d0 20 00 32 00 	bis.b	#32,	&0x0032	;#0x0020
    4252:	f2 d0 40 00 32 00 	bis.b	#64,	&0x0032	;#0x0040
    4258:	b0 12 c8 4f 	call	#0x4fc8	
    425c:	b0 12 d8 4f 	call	#0x4fd8	
    4260:	b0 12 e8 4f 	call	#0x4fe8	
    4264:	b0 12 58 63 	call	#0x6358	
    4268:	4f 93       	tst.b	r15		
    426a:	fc 23       	jnz	$-6      	;abs 0x4264
    426c:	f2 43 6c 11 	mov.b	#-1,	&0x116c	;r3 As==11
    4270:	b2 43 3e 11 	mov	#-1,	&0x113e	;r3 As==11
    4274:	c2 43 40 11 	mov.b	#0,	&0x1140	;r3 As==00
    4278:	b2 43 42 11 	mov	#-1,	&0x1142	;r3 As==11
    427c:	c2 43 44 11 	mov.b	#0,	&0x1144	;r3 As==00
    4280:	b2 43 46 11 	mov	#-1,	&0x1146	;r3 As==11
    4284:	c2 43 48 11 	mov.b	#0,	&0x1148	;r3 As==00
    4288:	b2 43 4a 11 	mov	#-1,	&0x114a	;r3 As==11
    428c:	c2 43 4c 11 	mov.b	#0,	&0x114c	;r3 As==00
    4290:	b0 12 0e 45 	call	#0x450e	
    4294:	c2 4f 03 12 	mov.b	r15,	&0x1203	
    4298:	1f 42 14 11 	mov	&0x1114,r15	
    429c:	1f 53       	inc	r15		
    429e:	82 4f 76 11 	mov	r15,	&0x1176	
    42a2:	82 43 78 11 	mov	#0,	&0x1178	;r3 As==00
    42a6:	b2 40 28 12 36 11 	mov	#4648,	&0x1136	;#0x1228
    42ac:	f2 f0 ef ff 22 00 	and.b	#-17,	&0x0022	;#0xffef
    42b2:	e2 d2 1e 00 	bis.b	#4,	&0x001e	;r2 As==10
    42b6:	f2 f0 fd ff 1e 00 	and.b	#-3,	&0x001e	;#0xfffd
    42bc:	b2 f0 ef ff 86 01 	and	#-17,	&0x0186	;#0xffef
    42c2:	b2 40 00 40 86 01 	mov	#16384,	&0x0186	;#0x4000
    42c8:	f2 43 84 11 	mov.b	#-1,	&0x1184	;r3 As==11
    42cc:	c2 43 b4 11 	mov.b	#0,	&0x11b4	;r3 As==00
    42d0:	c2 43 b5 11 	mov.b	#0,	&0x11b5	;r3 As==00
    42d4:	c2 43 b6 11 	mov.b	#0,	&0x11b6	;r3 As==00
    42d8:	c2 43 b7 11 	mov.b	#0,	&0x11b7	;r3 As==00
    42dc:	e2 d2 1e 00 	bis.b	#4,	&0x001e	;r2 As==10
    42e0:	f2 d0 40 00 1e 00 	bis.b	#64,	&0x001e	;#0x0040
    42e6:	f2 d0 20 00 1e 00 	bis.b	#32,	&0x001e	;#0x0020
    42ec:	b0 12 a2 48 	call	#0x48a2	
    42f0:	1b 42 06 11 	mov	&0x1106,r11	
    42f4:	b0 12 b4 48 	call	#0x48b4	
    42f8:	82 4b 8a 11 	mov	r11,	&0x118a	
    42fc:	b0 12 84 46 	call	#0x4684	
    4300:	82 4c f8 11 	mov	r12,	&0x11f8	
    4304:	82 4d fa 11 	mov	r13,	&0x11fa	
    4308:	82 4e fc 11 	mov	r14,	&0x11fc	
    430c:	82 4f fe 11 	mov	r15,	&0x11fe	
    4310:	d2 42 04 11 70 11 	mov.b	&0x1104,&0x1170	
    4316:	c2 43 71 11 	mov.b	#0,	&0x1171	;r3 As==00
    431a:	f2 40 1f 00 b2 11 	mov.b	#31,	&0x11b2	;#0x001f
    4320:	f2 40 1a 00 01 12 	mov.b	#26,	&0x1201	;#0x001a
    4326:	b0 12 84 46 	call	#0x4684	
    432a:	82 4c f8 11 	mov	r12,	&0x11f8	
    432e:	82 4d fa 11 	mov	r13,	&0x11fa	
    4332:	82 4e fc 11 	mov	r14,	&0x11fc	
    4336:	82 4f fe 11 	mov	r15,	&0x11fe	
    433a:	3e 40 f8 11 	mov	#4600,	r14	;#0x11f8
    433e:	0d 4e       	mov	r14,	r13	
    4340:	3d 50 07 00 	add	#7,	r13	;#0x0007
    4344:	0c 43       	clr	r12		
    4346:	6f 4e       	mov.b	@r14,	r15	
    4348:	ee 4d 00 00 	mov.b	@r13,	0(r14)	;0x0000(r14)
    434c:	cd 4f 00 00 	mov.b	r15,	0(r13)	;0x0000(r13)
    4350:	1c 53       	inc	r12		
    4352:	1e 53       	inc	r14		
    4354:	3d 53       	add	#-1,	r13	;r3 As==11
    4356:	2c 92       	cmp	#4,	r12	;r2 As==10
    4358:	f6 23       	jnz	$-18     	;abs 0x4346
    435a:	d2 43 65 11 	mov.b	#1,	&0x1165	;r3 As==01
    435e:	c2 43 69 12 	mov.b	#0,	&0x1269	;r3 As==00
    4362:	d2 43 72 11 	mov.b	#1,	&0x1172	;r3 As==01
    4366:	c2 43 c2 11 	mov.b	#0,	&0x11c2	;r3 As==00
    436a:	b2 f0 ef ff 82 01 	and	#-17,	&0x0182	;#0xffef
    4370:	b2 40 00 40 82 01 	mov	#16384,	&0x0182	;#0x4000
    4376:	b0 12 58 63 	call	#0x6358	
    437a:	4f 93       	tst.b	r15		
    437c:	fc 23       	jnz	$-6      	;abs 0x4376
    437e:	4f 47       	mov.b	r7,	r15	
    4380:	b0 12 b4 48 	call	#0x48b4	
    4384:	32 d2       	eint			
    4386:	5f 43       	mov.b	#1,	r15	;r3 As==01
    4388:	b0 12 32 53 	call	#0x5332	
    438c:	4f 93       	tst.b	r15		
    438e:	19 20       	jnz	$+52     	;abs 0x43c2
    4390:	b0 12 a2 48 	call	#0x48a2	
    4394:	82 93 2e 11 	tst	&0x112e	
    4398:	03 24       	jz	$+8      	;abs 0x43a0
    439a:	b0 12 b4 48 	call	#0x48b4	
    439e:	19 3c       	jmp	$+52     	;abs 0x43d2
    43a0:	92 43 2e 11 	mov	#1,	&0x112e	;r3 As==01
    43a4:	b0 12 b4 48 	call	#0x48b4	
    43a8:	b0 12 a2 48 	call	#0x48a2	
    43ac:	f2 d0 20 00 1d 00 	bis.b	#32,	&0x001d	;#0x0020
    43b2:	b0 12 b4 48 	call	#0x48b4	
    43b6:	3e 40 14 00 	mov	#20,	r14	;#0x0014
    43ba:	0f 43       	clr	r15		
    43bc:	b0 12 b0 4d 	call	#0x4db0	
    43c0:	08 3c       	jmp	$+18     	;abs 0x43d2
    43c2:	6f 43       	mov.b	#2,	r15	;r3 As==10
    43c4:	b0 12 82 49 	call	#0x4982	
    43c8:	4f 93       	tst.b	r15		
    43ca:	03 20       	jnz	$+8      	;abs 0x43d2
    43cc:	5f 43       	mov.b	#1,	r15	;r3 As==01
    43ce:	b0 12 82 49 	call	#0x4982	
    43d2:	b0 12 a2 48 	call	#0x48a2	
    43d6:	4a 4f       	mov.b	r15,	r10	
    43d8:	86 3c       	jmp	$+270    	;abs 0x44e6
    43da:	c2 93 0e 11 	tst.b	&0x110e	
    43de:	77 24       	jz	$+240    	;abs 0x44ce
    43e0:	b2 b0 10 00 62 01 	bit	#16,	&0x0162	;#0x0010
    43e6:	08 20       	jnz	$+18     	;abs 0x43f8
    43e8:	b2 b0 10 00 64 01 	bit	#16,	&0x0164	;#0x0010
    43ee:	04 20       	jnz	$+10     	;abs 0x43f8
    43f0:	b2 b0 10 00 66 01 	bit	#16,	&0x0166	;#0x0010
    43f6:	07 24       	jz	$+16     	;abs 0x4406
    43f8:	1e 42 60 01 	mov	&0x0160,r14	
    43fc:	3e f0 00 03 	and	#768,	r14	;#0x0300
    4400:	3e 90 00 02 	cmp	#512,	r14	;#0x0200
    4404:	2e 24       	jz	$+94     	;abs 0x4462
    4406:	5f 42 04 00 	mov.b	&0x0004,r15	
    440a:	3f b0 c0 00 	bit	#192,	r15	;#0x00c0
    440e:	05 24       	jz	$+12     	;abs 0x441a
    4410:	5f 42 71 00 	mov.b	&0x0071,r15	
    4414:	3f f0 20 00 	and	#32,	r15	;#0x0020
    4418:	26 20       	jnz	$+78     	;abs 0x4466
    441a:	5f 42 05 00 	mov.b	&0x0005,r15	
    441e:	3f b0 30 00 	bit	#48,	r15	;#0x0030
    4422:	05 24       	jz	$+12     	;abs 0x442e
    4424:	5f 42 79 00 	mov.b	&0x0079,r15	
    4428:	3f f0 20 00 	and	#32,	r15	;#0x0020
    442c:	1e 20       	jnz	$+62     	;abs 0x446a
    442e:	5f 42 70 00 	mov.b	&0x0070,r15	
    4432:	1f f3       	and	#1,	r15	;r3 As==01
    4434:	1c 24       	jz	$+58     	;abs 0x446e
    4436:	5f 42 71 00 	mov.b	&0x0071,r15	
    443a:	3f f0 20 00 	and	#32,	r15	;#0x0020
    443e:	1a 24       	jz	$+54     	;abs 0x4474
    4440:	5f 42 72 00 	mov.b	&0x0072,r15	
    4444:	3f f0 20 00 	and	#32,	r15	;#0x0020
    4448:	18 24       	jz	$+50     	;abs 0x447a
    444a:	5f 42 70 00 	mov.b	&0x0070,r15	
    444e:	2f f2       	and	#4,	r15	;r2 As==10
    4450:	17 24       	jz	$+48     	;abs 0x4480
    4452:	5f 42 70 00 	mov.b	&0x0070,r15	
    4456:	3f f0 20 00 	and	#32,	r15	;#0x0020
    445a:	15 20       	jnz	$+44     	;abs 0x4486
    445c:	7e 40 05 00 	mov.b	#5,	r14	;#0x0005
    4460:	13 3c       	jmp	$+40     	;abs 0x4488
    4462:	6e 43       	mov.b	#2,	r14	;r3 As==10
    4464:	11 3c       	jmp	$+36     	;abs 0x4488
    4466:	6e 43       	mov.b	#2,	r14	;r3 As==10
    4468:	0f 3c       	jmp	$+32     	;abs 0x4488
    446a:	6e 43       	mov.b	#2,	r14	;r3 As==10
    446c:	0d 3c       	jmp	$+28     	;abs 0x4488
    446e:	7e 40 05 00 	mov.b	#5,	r14	;#0x0005
    4472:	0a 3c       	jmp	$+22     	;abs 0x4488
    4474:	7e 40 05 00 	mov.b	#5,	r14	;#0x0005
    4478:	07 3c       	jmp	$+16     	;abs 0x4488
    447a:	7e 40 05 00 	mov.b	#5,	r14	;#0x0005
    447e:	04 3c       	jmp	$+10     	;abs 0x4488
    4480:	7e 40 05 00 	mov.b	#5,	r14	;#0x0005
    4484:	01 3c       	jmp	$+4      	;abs 0x4488
    4486:	6e 43       	mov.b	#2,	r14	;r3 As==10
    4488:	b2 b0 10 00 a0 01 	bit	#16,	&0x01a0	;#0x0010
    448e:	19 24       	jz	$+52     	;abs 0x44c2
    4490:	b2 b0 10 00 a2 01 	bit	#16,	&0x01a2	;#0x0010
    4496:	05 24       	jz	$+12     	;abs 0x44a2
    4498:	b2 b2 a2 01 	bit	#8,	&0x01a2	;r2 As==11
    449c:	0f 24       	jz	$+32     	;abs 0x44bc
    449e:	6e 43       	mov.b	#2,	r14	;r3 As==10
    44a0:	10 3c       	jmp	$+34     	;abs 0x44c2
    44a2:	1f 42 a2 01 	mov	&0x01a2,r15	
    44a6:	3f b0 00 04 	bit	#1024,	r15	;#0x0400
    44aa:	0b 24       	jz	$+24     	;abs 0x44c2
    44ac:	1d 42 60 01 	mov	&0x0160,r13	
    44b0:	3d f0 00 03 	and	#768,	r13	;#0x0300
    44b4:	3d 90 00 02 	cmp	#512,	r13	;#0x0200
    44b8:	04 20       	jnz	$+10     	;abs 0x44c2
    44ba:	02 3c       	jmp	$+6      	;abs 0x44c0
    44bc:	4e 43       	clr.b	r14		
    44be:	01 3c       	jmp	$+4      	;abs 0x44c2
    44c0:	6e 43       	mov.b	#2,	r14	;r3 As==10
    44c2:	7e 90 05 00 	cmp.b	#5,	r14	;#0x0005
    44c6:	01 28       	jnc	$+4      	;abs 0x44ca
    44c8:	6e 42       	mov.b	#4,	r14	;r2 As==10
    44ca:	c2 4e 34 11 	mov.b	r14,	&0x1134	
    44ce:	5e 42 34 11 	mov.b	&0x1134,r14	
    44d2:	0e 5e       	rla	r14		
    44d4:	1e 4e 70 6c 	mov	27760(r14),r14	;0x6c70(r14)
    44d8:	3e d2       	bis	#8,	r14	;r2 As==11
    44da:	81 4e 00 00 	mov	r14,	0(r1)	;0x0000(r1)
    44de:	22 d1       	bis	@r1,	r2	
    44e0:	32 c2       	dint			
    44e2:	03 43       	nop			
    44e4:	03 43       	nop			
    44e6:	f2 93 5d 12 	cmp.b	#-1,	&0x125d	;r3 As==11
    44ea:	77 27       	jz	$-272    	;abs 0x43da
    44ec:	b0 12 1e 48 	call	#0x481e	
    44f0:	4b 4f       	mov.b	r15,	r11	
    44f2:	7f 93       	cmp.b	#-1,	r15	;r3 As==11
    44f4:	72 27       	jz	$-282    	;abs 0x43da
    44f6:	4f 4a       	mov.b	r10,	r15	
    44f8:	b0 12 b4 48 	call	#0x48b4	
    44fc:	4f 4b       	mov.b	r11,	r15	
    44fe:	b0 12 8a 5b 	call	#0x5b8a	
    4502:	67 3f       	jmp	$-304    	;abs 0x43d2

00004504 <__stop_progExec__>:
    4504:	32 d0 f0 00 	bis	#240,	r2	;#0x00f0
    4508:	fd 3f       	jmp	$-4      	;abs 0x4504

0000450a <__ctors_end>:
    450a:	30 40 2c 6c 	br	#0x6c2c	

0000450e <RandomMlcgC__Random__rand16>:
    450e:	0b 12       	push	r11		
    4510:	0a 12       	push	r10		
    4512:	09 12       	push	r9		
    4514:	08 12       	push	r8		
    4516:	07 12       	push	r7		
    4518:	06 12       	push	r6		
    451a:	3c 40 4e 83 	mov	#-31922,r12	;#0x834e
    451e:	0d 43       	clr	r13		
    4520:	1e 42 76 11 	mov	&0x1176,r14	
    4524:	1f 42 78 11 	mov	&0x1178,r15	
    4528:	b0 12 da 69 	call	#0x69da	
    452c:	07 4d       	mov	r13,	r7	
    452e:	08 4e       	mov	r14,	r8	
    4530:	09 4f       	mov	r15,	r9	
    4532:	0e 4c       	mov	r12,	r14	
    4534:	0f 47       	mov	r7,	r15	
    4536:	12 c3       	clrc			
    4538:	0f 10       	rrc	r15		
    453a:	0e 10       	rrc	r14		
    453c:	08 5e       	add	r14,	r8	
    453e:	09 6f       	addc	r15,	r9	
    4540:	09 93       	tst	r9		
    4542:	05 34       	jge	$+12     	;abs 0x454e
    4544:	38 f3       	and	#-1,	r8	;r3 As==11
    4546:	39 f0 ff 7f 	and	#32767,	r9	;#0x7fff
    454a:	18 53       	inc	r8		
    454c:	09 63       	adc	r9		
    454e:	82 48 76 11 	mov	r8,	&0x1176	
    4552:	82 49 78 11 	mov	r9,	&0x1178	
    4556:	0f 48       	mov	r8,	r15	
    4558:	36 41       	pop	r6		
    455a:	37 41       	pop	r7		
    455c:	38 41       	pop	r8		
    455e:	39 41       	pop	r9		
    4560:	3a 41       	pop	r10		
    4562:	3b 41       	pop	r11		
    4564:	30 41       	ret			

00004566 <CC2420SpiP__SpiByte__write>:
    4566:	c2 4f 77 00 	mov.b	r15,	&0x0077	
    456a:	5f 42 02 00 	mov.b	&0x0002,r15	
    456e:	3f f0 40 00 	and	#64,	r15	;#0x0040
    4572:	fb 27       	jz	$-8      	;abs 0x456a
    4574:	f2 f0 bf ff 02 00 	and.b	#-65,	&0x0002	;#0xffbf
    457a:	5f 42 76 00 	mov.b	&0x0076,r15	
    457e:	30 41       	ret			

00004580 <OneWireMasterP__BusyWait__wait>:
    4580:	1e 42 70 01 	mov	&0x0170,r14	
    4584:	3f 90 01 80 	cmp	#-32767,r15	;#0x8001
    4588:	0a 28       	jnc	$+22     	;abs 0x459e
    458a:	3f 50 00 80 	add	#-32768,r15	;#0x8000
    458e:	1d 42 70 01 	mov	&0x0170,r13	
    4592:	0d 8e       	sub	r14,	r13	
    4594:	0f 9d       	cmp	r13,	r15	
    4596:	fb 2f       	jc	$-8      	;abs 0x458e
    4598:	0e 5f       	add	r15,	r14	
    459a:	3f 40 00 80 	mov	#-32768,r15	;#0x8000
    459e:	1d 42 70 01 	mov	&0x0170,r13	
    45a2:	0d 8e       	sub	r14,	r13	
    45a4:	0f 9d       	cmp	r13,	r15	
    45a6:	fb 2f       	jc	$-8      	;abs 0x459e
    45a8:	30 41       	ret			

000045aa <OneWireMasterP__Pin__makeInput>:
    45aa:	f2 f0 ef ff 2a 00 	and.b	#-17,	&0x002a	;#0xffef
    45b0:	30 41       	ret			

000045b2 <OneWireMasterP__Pin__makeOutput>:
    45b2:	f2 d0 10 00 2a 00 	bis.b	#16,	&0x002a	;#0x0010
    45b8:	30 41       	ret			

000045ba <Msp430TimerP__1__Timer__get>:
    45ba:	1f 42 90 01 	mov	&0x0190,r15	
    45be:	01 3c       	jmp	$+4      	;abs 0x45c2
    45c0:	0f 4e       	mov	r14,	r15	
    45c2:	1e 42 90 01 	mov	&0x0190,r14	
    45c6:	0f 9e       	cmp	r14,	r15	
    45c8:	fb 23       	jnz	$-8      	;abs 0x45c0
    45ca:	30 41       	ret			

000045cc <GpioCaptureC__0__enableCapture>:
    45cc:	b2 f0 ef ff 84 01 	and	#-17,	&0x0184	;#0xffef
    45d2:	e2 d3 1f 00 	bis.b	#2,	&0x001f	;r3 As==10
    45d6:	b2 f0 fe ff 84 01 	and	#-2,	&0x0184	;#0xfffe
    45dc:	b2 f0 fd ff 84 01 	and	#-3,	&0x0184	;#0xfffd
    45e2:	4f 4f       	mov.b	r15,	r15	
    45e4:	8f 10       	swpb	r15		
    45e6:	7e 40 06 00 	mov.b	#6,	r14	;#0x0006
    45ea:	0f 5f       	rla	r15		
    45ec:	7e 53       	add.b	#-1,	r14	;r3 As==11
    45ee:	fd 23       	jnz	$-4      	;abs 0x45ea
    45f0:	3f d0 00 01 	bis	#256,	r15	;#0x0100
    45f4:	82 4f 84 01 	mov	r15,	&0x0184	
    45f8:	b2 d0 10 00 84 01 	bis	#16,	&0x0184	;#0x0010
    45fe:	4f 43       	clr.b	r15		
    4600:	30 41       	ret			

00004602 <MotePlatformC__TOSH_FLASH_M25P_DP_bit>:
    4602:	4f 93       	tst.b	r15		
    4604:	04 24       	jz	$+10     	;abs 0x460e
    4606:	5f 42 19 00 	mov.b	&0x0019,r15	
    460a:	6f d3       	bis.b	#2,	r15	;r3 As==10
    460c:	04 3c       	jmp	$+10     	;abs 0x4616
    460e:	5f 42 19 00 	mov.b	&0x0019,r15	
    4612:	7f f0 fd ff 	and.b	#-3,	r15	;#0xfffd
    4616:	c2 4f 19 00 	mov.b	r15,	&0x0019	
    461a:	f2 d2 19 00 	bis.b	#8,	&0x0019	;r2 As==11
    461e:	f2 f0 f7 ff 19 00 	and.b	#-9,	&0x0019	;#0xfff7
    4624:	30 41       	ret			

00004626 <CC2420PacketP__getNetwork>:
    4626:	5c 4f 02 00 	mov.b	2(r15),	r12	;0x0002(r15)
    462a:	8c 10       	swpb	r12		
    462c:	5e 4f 01 00 	mov.b	1(r15),	r14	;0x0001(r15)
    4630:	0c de       	bis	r14,	r12	
    4632:	0e 4c       	mov	r12,	r14	
    4634:	8e 10       	swpb	r14		
    4636:	4e 4e       	mov.b	r14,	r14	
    4638:	12 c3       	clrc			
    463a:	0e 10       	rrc	r14		
    463c:	12 c3       	clrc			
    463e:	0e 10       	rrc	r14		
    4640:	3e f0 03 00 	and	#3,	r14	;#0x0003
    4644:	5d 4e 7c 6c 	mov.b	27772(r14),r13	;0x6c7c(r14)
    4648:	8d 11       	sxt	r13		
    464a:	0e 4c       	mov	r12,	r14	
    464c:	8e 10       	swpb	r14		
    464e:	4e 4e       	mov.b	r14,	r14	
    4650:	7c 40 06 00 	mov.b	#6,	r12	;#0x0006
    4654:	12 c3       	clrc			
    4656:	0e 10       	rrc	r14		
    4658:	7c 53       	add.b	#-1,	r12	;r3 As==11
    465a:	fc 23       	jnz	$-6      	;abs 0x4654
    465c:	5e 4e 7c 6c 	mov.b	27772(r14),r14	;0x6c7c(r14)
    4660:	8e 11       	sxt	r14		
    4662:	0e 5d       	add	r13,	r14	
    4664:	3e 50 06 00 	add	#6,	r14	;#0x0006
    4668:	0f 5e       	add	r14,	r15	
    466a:	30 41       	ret			

0000466c <CC2420ReceiveP__reset_state>:
    466c:	f2 40 80 ff 50 11 	mov.b	#-128,	&0x1150	;#0xff80
    4672:	c2 43 6e 11 	mov.b	#0,	&0x116e	;r3 As==00
    4676:	c2 43 60 12 	mov.b	#0,	&0x1260	;r3 As==00
    467a:	c2 43 5c 12 	mov.b	#0,	&0x125c	;r3 As==00
    467e:	c2 43 66 11 	mov.b	#0,	&0x1166	;r3 As==00
    4682:	30 41       	ret			

00004684 <LocalIeeeEui64P__LocalIeeeEui64__getId>:
    4684:	0b 12       	push	r11		
    4686:	0a 12       	push	r10		
    4688:	09 12       	push	r9		
    468a:	08 12       	push	r8		
    468c:	c2 93 20 11 	tst.b	&0x1120	
    4690:	b0 20       	jnz	$+354    	;abs 0x47f2
    4692:	c2 93 1e 11 	tst.b	&0x111e	
    4696:	82 20       	jnz	$+262    	;abs 0x479c
    4698:	b0 12 aa 45 	call	#0x45aa	
    469c:	f2 f0 ef ff 29 00 	and.b	#-17,	&0x0029	;#0xffef
    46a2:	b0 12 b2 45 	call	#0x45b2	
    46a6:	3f 40 30 02 	mov	#560,	r15	;#0x0230
    46aa:	b0 12 80 45 	call	#0x4580	
    46ae:	b0 12 aa 45 	call	#0x45aa	
    46b2:	3f 40 3c 00 	mov	#60,	r15	;#0x003c
    46b6:	b0 12 80 45 	call	#0x4580	
    46ba:	0b 43       	clr	r11		
    46bc:	f2 b0 10 00 28 00 	bit.b	#16,	&0x0028	;#0x0010
    46c2:	09 24       	jz	$+20     	;abs 0x46d6
    46c4:	3b 50 05 00 	add	#5,	r11	;#0x0005
    46c8:	3f 40 05 00 	mov	#5,	r15	;#0x0005
    46cc:	b0 12 80 45 	call	#0x4580	
    46d0:	3b 90 f0 00 	cmp	#240,	r11	;#0x00f0
    46d4:	f3 23       	jnz	$-24     	;abs 0x46bc
    46d6:	3f 40 a4 01 	mov	#420,	r15	;#0x01a4
    46da:	b0 12 80 45 	call	#0x4580	
    46de:	3b 90 f0 00 	cmp	#240,	r11	;#0x00f0
    46e2:	5e 2c       	jc	$+190    	;abs 0x47a0
    46e4:	7a 42       	mov.b	#8,	r10	;r2 As==11
    46e6:	7b 40 33 00 	mov.b	#51,	r11	;#0x0033
    46ea:	1b b3       	bit	#1,	r11	;r3 As==01
    46ec:	0b 24       	jz	$+24     	;abs 0x4704
    46ee:	b0 12 b2 45 	call	#0x45b2	
    46f2:	3f 40 05 00 	mov	#5,	r15	;#0x0005
    46f6:	b0 12 80 45 	call	#0x4580	
    46fa:	b0 12 aa 45 	call	#0x45aa	
    46fe:	3f 40 41 00 	mov	#65,	r15	;#0x0041
    4702:	0a 3c       	jmp	$+22     	;abs 0x4718
    4704:	b0 12 b2 45 	call	#0x45b2	
    4708:	3f 40 3c 00 	mov	#60,	r15	;#0x003c
    470c:	b0 12 80 45 	call	#0x4580	
    4710:	b0 12 aa 45 	call	#0x45aa	
    4714:	3f 40 05 00 	mov	#5,	r15	;#0x0005
    4718:	b0 12 80 45 	call	#0x4580	
    471c:	12 c3       	clrc			
    471e:	4b 10       	rrc.b	r11		
    4720:	7a 53       	add.b	#-1,	r10	;r3 As==11
    4722:	e3 23       	jnz	$-56     	;abs 0x46ea
    4724:	3a 40 ba 11 	mov	#4538,	r10	;#0x11ba
    4728:	79 42       	mov.b	#8,	r9	;r2 As==11
    472a:	4b 43       	clr.b	r11		
    472c:	12 c3       	clrc			
    472e:	4b 10       	rrc.b	r11		
    4730:	b0 12 b2 45 	call	#0x45b2	
    4734:	3f 40 05 00 	mov	#5,	r15	;#0x0005
    4738:	b0 12 80 45 	call	#0x4580	
    473c:	b0 12 aa 45 	call	#0x45aa	
    4740:	3f 40 05 00 	mov	#5,	r15	;#0x0005
    4744:	b0 12 80 45 	call	#0x4580	
    4748:	58 42 28 00 	mov.b	&0x0028,r8	
    474c:	3f 40 41 00 	mov	#65,	r15	;#0x0041
    4750:	b0 12 80 45 	call	#0x4580	
    4754:	78 b0 10 00 	bit.b	#16,	r8	;#0x0010
    4758:	02 24       	jz	$+6      	;abs 0x475e
    475a:	7b d0 80 ff 	bis.b	#-128,	r11	;#0xff80
    475e:	79 53       	add.b	#-1,	r9	;r3 As==11
    4760:	e5 23       	jnz	$-52     	;abs 0x472c
    4762:	ca 4b 00 00 	mov.b	r11,	0(r10)	;0x0000(r10)
    4766:	1a 53       	inc	r10		
    4768:	3a 90 c2 11 	cmp	#4546,	r10	;#0x11c2
    476c:	dd 23       	jnz	$-68     	;abs 0x4728
    476e:	0e 43       	clr	r14		
    4770:	4f 43       	clr.b	r15		
    4772:	5f ee ba 11 	xor.b	4538(r14),r15	;0x11ba(r14)
    4776:	7d 42       	mov.b	#8,	r13	;r2 As==11
    4778:	0c 4f       	mov	r15,	r12	
    477a:	1c f3       	and	#1,	r12	;r3 As==01
    477c:	12 c3       	clrc			
    477e:	4f 10       	rrc.b	r15		
    4780:	0c 93       	tst	r12		
    4782:	02 24       	jz	$+6      	;abs 0x4788
    4784:	7f e0 8c ff 	xor.b	#-116,	r15	;#0xff8c
    4788:	7d 53       	add.b	#-1,	r13	;r3 As==11
    478a:	f6 23       	jnz	$-18     	;abs 0x4778
    478c:	1e 53       	inc	r14		
    478e:	3e 92       	cmp	#8,	r14	;r2 As==11
    4790:	f0 23       	jnz	$-30     	;abs 0x4772
    4792:	4f 93       	tst.b	r15		
    4794:	07 20       	jnz	$+16     	;abs 0x47a4
    4796:	d2 43 1e 11 	mov.b	#1,	&0x111e	;r3 As==01
    479a:	06 3c       	jmp	$+14     	;abs 0x47a8
    479c:	4f 43       	clr.b	r15		
    479e:	04 3c       	jmp	$+10     	;abs 0x47a8
    47a0:	6f 42       	mov.b	#4,	r15	;r2 As==10
    47a2:	02 3c       	jmp	$+6      	;abs 0x47a8
    47a4:	7f 40 06 00 	mov.b	#6,	r15	;#0x0006
    47a8:	c2 93 1e 11 	tst.b	&0x111e	
    47ac:	07 24       	jz	$+16     	;abs 0x47bc
    47ae:	5e 42 bb 11 	mov.b	&0x11bb,r14	
    47b2:	5d 42 bc 11 	mov.b	&0x11bc,r13	
    47b6:	5c 42 bd 11 	mov.b	&0x11bd,r12	
    47ba:	03 3c       	jmp	$+8      	;abs 0x47c2
    47bc:	4c 43       	clr.b	r12		
    47be:	4d 43       	clr.b	r13		
    47c0:	4e 43       	clr.b	r14		
    47c2:	4f 93       	tst.b	r15		
    47c4:	16 20       	jnz	$+46     	;abs 0x47f2
    47c6:	c2 43 22 11 	mov.b	#0,	&0x1122	;r3 As==00
    47ca:	f2 40 12 00 23 11 	mov.b	#18,	&0x1123	;#0x0012
    47d0:	f2 40 6d 00 24 11 	mov.b	#109,	&0x1124	;#0x006d
    47d6:	f2 40 45 00 25 11 	mov.b	#69,	&0x1125	;#0x0045
    47dc:	f2 40 50 00 26 11 	mov.b	#80,	&0x1126	;#0x0050
    47e2:	c2 4c 27 11 	mov.b	r12,	&0x1127	
    47e6:	c2 4d 28 11 	mov.b	r13,	&0x1128	
    47ea:	c2 4e 29 11 	mov.b	r14,	&0x1129	
    47ee:	d2 43 20 11 	mov.b	#1,	&0x1120	;r3 As==01
    47f2:	1c 42 22 11 	mov	&0x1122,r12	
    47f6:	1d 42 24 11 	mov	&0x1124,r13	
    47fa:	1e 42 26 11 	mov	&0x1126,r14	
    47fe:	1f 42 28 11 	mov	&0x1128,r15	
    4802:	38 41       	pop	r8		
    4804:	39 41       	pop	r9		
    4806:	3a 41       	pop	r10		
    4808:	3b 41       	pop	r11		
    480a:	30 41       	ret			

0000480c <HplMsp430Usart0P__Usart__resetUsart>:
    480c:	4f 93       	tst.b	r15		
    480e:	03 24       	jz	$+8      	;abs 0x4816
    4810:	d2 43 70 00 	mov.b	#1,	&0x0070	;r3 As==01
    4814:	30 41       	ret			
    4816:	f2 f0 fe ff 70 00 	and.b	#-2,	&0x0070	;#0xfffe
    481c:	30 41       	ret			

0000481e <SchedulerBasicP__popTask.part.79>:
    481e:	5f 42 5d 12 	mov.b	&0x125d,r15	
    4822:	4e 4f       	mov.b	r15,	r14	
    4824:	3e 50 52 11 	add	#4434,	r14	;#0x1152
    4828:	6d 4e       	mov.b	@r14,	r13	
    482a:	c2 4d 5d 12 	mov.b	r13,	&0x125d	
    482e:	7d 93       	cmp.b	#-1,	r13	;r3 As==11
    4830:	02 20       	jnz	$+6      	;abs 0x4836
    4832:	f2 43 6d 12 	mov.b	#-1,	&0x126d	;r3 As==11
    4836:	fe 43 00 00 	mov.b	#-1,	0(r14)	;r3 As==11, 0x0000(r14)
    483a:	30 41       	ret			

0000483c <Msp430TimerP__0__Event__fired>:
    483c:	5f 93       	cmp.b	#1,	r15	;r3 As==01
    483e:	0c 24       	jz	$+26     	;abs 0x4858
    4840:	03 28       	jnc	$+8      	;abs 0x4848
    4842:	6f 93       	cmp.b	#2,	r15	;r3 As==10
    4844:	18 20       	jnz	$+50     	;abs 0x4876
    4846:	10 3c       	jmp	$+34     	;abs 0x4868
    4848:	1f 42 62 01 	mov	&0x0162,r15	
    484c:	8f 10       	swpb	r15		
    484e:	5f f3       	and.b	#1,	r15	;r3 As==01
    4850:	12 24       	jz	$+38     	;abs 0x4876
    4852:	1f 42 72 01 	mov	&0x0172,r15	
    4856:	30 41       	ret			
    4858:	1f 42 64 01 	mov	&0x0164,r15	
    485c:	8f 10       	swpb	r15		
    485e:	5f f3       	and.b	#1,	r15	;r3 As==01
    4860:	0a 24       	jz	$+22     	;abs 0x4876
    4862:	1f 42 74 01 	mov	&0x0174,r15	
    4866:	30 41       	ret			
    4868:	1f 42 66 01 	mov	&0x0166,r15	
    486c:	8f 10       	swpb	r15		
    486e:	5f f3       	and.b	#1,	r15	;r3 As==01
    4870:	02 24       	jz	$+6      	;abs 0x4876
    4872:	1f 42 76 01 	mov	&0x0176,r15	
    4876:	30 41       	ret			

00004878 <ArbiterP__0__ResourceConfigure__unconfigure.part.88>:
    4878:	5f 43       	mov.b	#1,	r15	;r3 As==01
    487a:	b0 12 0c 48 	call	#0x480c	
    487e:	f2 f0 bf ff 04 00 	and.b	#-65,	&0x0004	;#0xffbf
    4884:	3f 40 1b 00 	mov	#27,	r15	;#0x001b
    4888:	ff f0 fd ff 00 00 	and.b	#-3,	0(r15)	;#0xfffd, 0x0000(r15)
    488e:	ff f0 fb ff 00 00 	and.b	#-5,	0(r15)	;#0xfffb, 0x0000(r15)
    4894:	ff f0 f7 ff 00 00 	and.b	#-9,	0(r15)	;#0xfff7, 0x0000(r15)
    489a:	4f 43       	clr.b	r15		
    489c:	b0 12 0c 48 	call	#0x480c	
    48a0:	30 41       	ret			

000048a2 <__nesc_atomic_start>:
    48a2:	0e 42       	mov	r2,	r14	
    48a4:	32 c2       	dint			
    48a6:	03 43       	nop			
    48a8:	03 43       	nop			
    48aa:	3e f2       	and	#8,	r14	;r2 As==11
    48ac:	5f 43       	mov.b	#1,	r15	;r3 As==01
    48ae:	01 20       	jnz	$+4      	;abs 0x48b2
    48b0:	4f 43       	clr.b	r15		
    48b2:	30 41       	ret			

000048b4 <__nesc_atomic_end>:
    48b4:	4f 93       	tst.b	r15		
    48b6:	01 24       	jz	$+4      	;abs 0x48ba
    48b8:	32 d2       	eint			
    48ba:	30 41       	ret			

000048bc <Msp430SpiNoDmaP__0__continueOp>:
    48bc:	0b 12       	push	r11		
    48be:	b0 12 a2 48 	call	#0x48a2	
    48c2:	1d 42 7e 11 	mov	&0x117e,r13	
    48c6:	1e 42 5e 12 	mov	&0x125e,r14	
    48ca:	0d 93       	tst	r13		
    48cc:	03 24       	jz	$+8      	;abs 0x48d4
    48ce:	0d 5e       	add	r14,	r13	
    48d0:	6d 4d       	mov.b	@r13,	r13	
    48d2:	01 3c       	jmp	$+4      	;abs 0x48d6
    48d4:	4d 43       	clr.b	r13		
    48d6:	c2 4d 77 00 	mov.b	r13,	&0x0077	
    48da:	6e 53       	incd.b	r14		
    48dc:	1d 42 62 12 	mov	&0x1262,r13	
    48e0:	4c 4e       	mov.b	r14,	r12	
    48e2:	0d 9c       	cmp	r12,	r13	
    48e4:	1c 2c       	jc	$+58     	;abs 0x491e
    48e6:	4e 4d       	mov.b	r13,	r14	
    48e8:	1a 3c       	jmp	$+54     	;abs 0x491e
    48ea:	5d 42 02 00 	mov.b	&0x0002,r13	
    48ee:	3d f0 40 00 	and	#64,	r13	;#0x0040
    48f2:	fb 27       	jz	$-8      	;abs 0x48ea
    48f4:	5b 42 76 00 	mov.b	&0x0076,r11	
    48f8:	1d 42 b0 11 	mov	&0x11b0,r13	
    48fc:	0d 93       	tst	r13		
    48fe:	03 24       	jz	$+8      	;abs 0x4906
    4900:	0c 5d       	add	r13,	r12	
    4902:	cc 4b 00 00 	mov.b	r11,	0(r12)	;0x0000(r12)
    4906:	1d 42 7e 11 	mov	&0x117e,r13	
    490a:	0d 93       	tst	r13		
    490c:	04 24       	jz	$+10     	;abs 0x4916
    490e:	1d 52 5e 12 	add	&0x125e,r13	
    4912:	6d 4d       	mov.b	@r13,	r13	
    4914:	01 3c       	jmp	$+4      	;abs 0x4918
    4916:	4d 43       	clr.b	r13		
    4918:	c2 4d 77 00 	mov.b	r13,	&0x0077	
    491c:	01 3c       	jmp	$+4      	;abs 0x4920
    491e:	4e 4e       	mov.b	r14,	r14	
    4920:	1c 42 5e 12 	mov	&0x125e,r12	
    4924:	0d 4c       	mov	r12,	r13	
    4926:	1d 53       	inc	r13		
    4928:	82 4d 5e 12 	mov	r13,	&0x125e	
    492c:	0d 9e       	cmp	r14,	r13	
    492e:	dd 2b       	jnc	$-68     	;abs 0x48ea
    4930:	b0 12 b4 48 	call	#0x48b4	
    4934:	3b 41       	pop	r11		
    4936:	30 41       	ret			

00004938 <CC2420SpiP__WorkingState__isIdle>:
    4938:	0b 12       	push	r11		
    493a:	b0 12 a2 48 	call	#0x48a2	
    493e:	5b 43       	mov.b	#1,	r11	;r3 As==01
    4940:	c2 93 b4 11 	tst.b	&0x11b4	
    4944:	01 24       	jz	$+4      	;abs 0x4948
    4946:	4b 43       	clr.b	r11		
    4948:	b0 12 b4 48 	call	#0x48b4	
    494c:	4f 4b       	mov.b	r11,	r15	
    494e:	3b 41       	pop	r11		
    4950:	30 41       	ret			

00004952 <CC2420SpiP__Strobe__strobe>:
    4952:	0b 12       	push	r11		
    4954:	0a 12       	push	r10		
    4956:	4a 4f       	mov.b	r15,	r10	
    4958:	b0 12 a2 48 	call	#0x48a2	
    495c:	4b 4f       	mov.b	r15,	r11	
    495e:	b0 12 38 49 	call	#0x4938	
    4962:	4f 93       	tst.b	r15		
    4964:	05 24       	jz	$+12     	;abs 0x4970
    4966:	4f 4b       	mov.b	r11,	r15	
    4968:	b0 12 b4 48 	call	#0x48b4	
    496c:	4f 43       	clr.b	r15		
    496e:	06 3c       	jmp	$+14     	;abs 0x497c
    4970:	4f 4b       	mov.b	r11,	r15	
    4972:	b0 12 b4 48 	call	#0x48b4	
    4976:	4f 4a       	mov.b	r10,	r15	
    4978:	b0 12 66 45 	call	#0x4566	
    497c:	3a 41       	pop	r10		
    497e:	3b 41       	pop	r11		
    4980:	30 41       	ret			

00004982 <CC2420CsmaP__SplitControlState__isState>:
    4982:	0b 12       	push	r11		
    4984:	0a 12       	push	r10		
    4986:	4a 4f       	mov.b	r15,	r10	
    4988:	b0 12 a2 48 	call	#0x48a2	
    498c:	5b 43       	mov.b	#1,	r11	;r3 As==01
    498e:	5a 92 b5 11 	cmp.b	&0x11b5,r10	
    4992:	01 24       	jz	$+4      	;abs 0x4996
    4994:	4b 43       	clr.b	r11		
    4996:	b0 12 b4 48 	call	#0x48b4	
    499a:	4f 4b       	mov.b	r11,	r15	
    499c:	3a 41       	pop	r10		
    499e:	3b 41       	pop	r11		
    49a0:	30 41       	ret			

000049a2 <Msp430GpioC__4__GeneralIO__clr>:
    49a2:	b0 12 a2 48 	call	#0x48a2	
    49a6:	f2 f0 fb ff 1d 00 	and.b	#-5,	&0x001d	;#0xfffb
    49ac:	b0 12 b4 48 	call	#0x48b4	
    49b0:	30 41       	ret			

000049b2 <SchedulerBasicP__TaskBasic__postTask>:
    49b2:	0b 12       	push	r11		
    49b4:	4b 4f       	mov.b	r15,	r11	
    49b6:	b0 12 a2 48 	call	#0x48a2	
    49ba:	4e 4b       	mov.b	r11,	r14	
    49bc:	fe 93 52 11 	cmp.b	#-1,	4434(r14);r3 As==11, 0x1152(r14)
    49c0:	06 20       	jnz	$+14     	;abs 0x49ce
    49c2:	1e 43       	mov	#1,	r14	;r3 As==01
    49c4:	c2 9b 6d 12 	cmp.b	r11,	&0x126d	
    49c8:	03 24       	jz	$+8      	;abs 0x49d0
    49ca:	0e 43       	clr	r14		
    49cc:	01 3c       	jmp	$+4      	;abs 0x49d0
    49ce:	1e 43       	mov	#1,	r14	;r3 As==01
    49d0:	0e 93       	tst	r14		
    49d2:	0e 20       	jnz	$+30     	;abs 0x49f0
    49d4:	f2 93 5d 12 	cmp.b	#-1,	&0x125d	;r3 As==11
    49d8:	03 20       	jnz	$+8      	;abs 0x49e0
    49da:	c2 4b 5d 12 	mov.b	r11,	&0x125d	
    49de:	04 3c       	jmp	$+10     	;abs 0x49e8
    49e0:	5e 42 6d 12 	mov.b	&0x126d,r14	
    49e4:	ce 4b 52 11 	mov.b	r11,	4434(r14);0x1152(r14)
    49e8:	c2 4b 6d 12 	mov.b	r11,	&0x126d	
    49ec:	4b 43       	clr.b	r11		
    49ee:	02 3c       	jmp	$+6      	;abs 0x49f4
    49f0:	7b 40 05 00 	mov.b	#5,	r11	;#0x0005
    49f4:	b0 12 b4 48 	call	#0x48b4	
    49f8:	4f 4b       	mov.b	r11,	r15	
    49fa:	3b 41       	pop	r11		
    49fc:	30 41       	ret			

000049fe <CC2420SpiP__attemptRelease>:
    49fe:	c2 93 2c 11 	tst.b	&0x112c	
    4a02:	39 20       	jnz	$+116    	;abs 0x4a76
    4a04:	f2 93 0b 11 	cmp.b	#-1,	&0x110b	;r3 As==11
    4a08:	36 20       	jnz	$+110    	;abs 0x4a76
    4a0a:	b0 12 38 49 	call	#0x4938	
    4a0e:	4f 93       	tst.b	r15		
    4a10:	32 24       	jz	$+102    	;abs 0x4a76
    4a12:	d2 43 02 12 	mov.b	#1,	&0x1202	;r3 As==01
    4a16:	c2 93 51 11 	tst.b	&0x1151	
    4a1a:	02 24       	jz	$+6      	;abs 0x4a20
    4a1c:	c2 43 02 12 	mov.b	#0,	&0x1202	;r3 As==00
    4a20:	c2 93 02 12 	tst.b	&0x1202	
    4a24:	2a 24       	jz	$+86     	;abs 0x4a7a
    4a26:	f2 90 03 00 2a 11 	cmp.b	#3,	&0x112a	;#0x0003
    4a2c:	29 20       	jnz	$+84     	;abs 0x4a80
    4a2e:	c2 93 08 11 	tst.b	&0x1108	
    4a32:	28 20       	jnz	$+82     	;abs 0x4a84
    4a34:	5e 42 0a 11 	mov.b	&0x110a,r14	
    4a38:	7e 93       	cmp.b	#-1,	r14	;r3 As==11
    4a3a:	16 24       	jz	$+46     	;abs 0x4a68
    4a3c:	4f 4e       	mov.b	r14,	r15	
    4a3e:	5d 4f 84 11 	mov.b	4484(r15),r13	;0x1184(r15)
    4a42:	c2 4d 0a 11 	mov.b	r13,	&0x110a	
    4a46:	7d 93       	cmp.b	#-1,	r13	;r3 As==11
    4a48:	02 20       	jnz	$+6      	;abs 0x4a4e
    4a4a:	f2 43 09 11 	mov.b	#-1,	&0x1109	;r3 As==11
    4a4e:	ff 43 84 11 	mov.b	#-1,	4484(r15);r3 As==11, 0x1184(r15)
    4a52:	c2 4e 00 12 	mov.b	r14,	&0x1200	
    4a56:	f2 43 08 11 	mov.b	#-1,	&0x1108	;r3 As==11
    4a5a:	d2 43 2a 11 	mov.b	#1,	&0x112a	;r3 As==01
    4a5e:	7f 40 09 00 	mov.b	#9,	r15	;#0x0009
    4a62:	b0 12 b2 49 	call	#0x49b2	
    4a66:	04 3c       	jmp	$+10     	;abs 0x4a70
    4a68:	d2 43 08 11 	mov.b	#1,	&0x1108	;r3 As==01
    4a6c:	c2 43 2a 11 	mov.b	#0,	&0x112a	;r3 As==00
    4a70:	b0 12 78 48 	call	#0x4878	
    4a74:	05 3c       	jmp	$+12     	;abs 0x4a80
    4a76:	5f 43       	mov.b	#1,	r15	;r3 As==01
    4a78:	30 41       	ret			
    4a7a:	7f 40 05 00 	mov.b	#5,	r15	;#0x0005
    4a7e:	30 41       	ret			
    4a80:	4f 43       	clr.b	r15		
    4a82:	30 41       	ret			
    4a84:	4f 43       	clr.b	r15		
    4a86:	30 41       	ret			

00004a88 <ArbiterP__0__ResourceDefaultOwner__release>:
    4a88:	d2 93 08 11 	cmp.b	#1,	&0x1108	;r3 As==01
    4a8c:	13 20       	jnz	$+40     	;abs 0x4ab4
    4a8e:	5f 42 2a 11 	mov.b	&0x112a,r15	
    4a92:	5f 93       	cmp.b	#1,	r15	;r3 As==01
    4a94:	05 20       	jnz	$+12     	;abs 0x4aa0
    4a96:	7f 40 09 00 	mov.b	#9,	r15	;#0x0009
    4a9a:	b0 12 b2 49 	call	#0x49b2	
    4a9e:	08 3c       	jmp	$+18     	;abs 0x4ab0
    4aa0:	6f 93       	cmp.b	#2,	r15	;r3 As==10
    4aa2:	0a 20       	jnz	$+22     	;abs 0x4ab8
    4aa4:	d2 42 00 12 08 11 	mov.b	&0x1200,&0x1108	
    4aaa:	f2 40 03 00 2a 11 	mov.b	#3,	&0x112a	;#0x0003
    4ab0:	4f 43       	clr.b	r15		
    4ab2:	30 41       	ret			
    4ab4:	5f 43       	mov.b	#1,	r15	;r3 As==01
    4ab6:	30 41       	ret			
    4ab8:	5f 43       	mov.b	#1,	r15	;r3 As==01
    4aba:	30 41       	ret			

00004abc <CC2420SpiP__SpiPacket__send.part.94>:
    4abc:	b0 12 a2 48 	call	#0x48a2	
    4ac0:	f2 f0 bf ff 02 00 	and.b	#-65,	&0x0002	;#0xffbf
    4ac6:	f2 d0 40 00 00 00 	bis.b	#64,	&0x0000	;#0x0040
    4acc:	b0 12 b4 48 	call	#0x48b4	
    4ad0:	b0 12 bc 48 	call	#0x48bc	
    4ad4:	30 41       	ret			

00004ad6 <CC2420ReceiveP__RXFIFO__continueRead>:
    4ad6:	4e 4e       	mov.b	r14,	r14	
    4ad8:	c2 43 8c 11 	mov.b	#0,	&0x118c	;r3 As==00
    4adc:	82 43 7e 11 	mov	#0,	&0x117e	;r3 As==00
    4ae0:	82 4f b0 11 	mov	r15,	&0x11b0	
    4ae4:	82 4e 62 12 	mov	r14,	&0x1262	
    4ae8:	82 43 5e 12 	mov	#0,	&0x125e	;r3 As==00
    4aec:	0e 93       	tst	r14		
    4aee:	03 24       	jz	$+8      	;abs 0x4af6
    4af0:	b0 12 bc 4a 	call	#0x4abc	
    4af4:	03 3c       	jmp	$+8      	;abs 0x4afc
    4af6:	7f 42       	mov.b	#8,	r15	;r2 As==11
    4af8:	b0 12 b2 49 	call	#0x49b2	
    4afc:	4f 43       	clr.b	r15		
    4afe:	30 41       	ret			

00004b00 <CC2420ReceiveP__RXFIFO__beginRead>:
    4b00:	0b 12       	push	r11		
    4b02:	0a 12       	push	r10		
    4b04:	09 12       	push	r9		
    4b06:	0a 4f       	mov	r15,	r10	
    4b08:	49 4e       	mov.b	r14,	r9	
    4b0a:	b0 12 a2 48 	call	#0x48a2	
    4b0e:	4b 4f       	mov.b	r15,	r11	
    4b10:	b0 12 38 49 	call	#0x4938	
    4b14:	4f 93       	tst.b	r15		
    4b16:	05 24       	jz	$+12     	;abs 0x4b22
    4b18:	4f 4b       	mov.b	r11,	r15	
    4b1a:	b0 12 b4 48 	call	#0x48b4	
    4b1e:	4b 43       	clr.b	r11		
    4b20:	1e 3c       	jmp	$+62     	;abs 0x4b5e
    4b22:	4f 4b       	mov.b	r11,	r15	
    4b24:	b0 12 b4 48 	call	#0x48b4	
    4b28:	b2 40 7f 00 8e 11 	mov	#127,	&0x118e	;#0x007f
    4b2e:	7f 40 7f 00 	mov.b	#127,	r15	;#0x007f
    4b32:	b0 12 66 45 	call	#0x4566	
    4b36:	4b 4f       	mov.b	r15,	r11	
    4b38:	4e 49       	mov.b	r9,	r14	
    4b3a:	c2 43 8c 11 	mov.b	#0,	&0x118c	;r3 As==00
    4b3e:	82 43 7e 11 	mov	#0,	&0x117e	;r3 As==00
    4b42:	82 4a b0 11 	mov	r10,	&0x11b0	
    4b46:	82 4e 62 12 	mov	r14,	&0x1262	
    4b4a:	82 43 5e 12 	mov	#0,	&0x125e	;r3 As==00
    4b4e:	0e 93       	tst	r14		
    4b50:	03 24       	jz	$+8      	;abs 0x4b58
    4b52:	b0 12 bc 4a 	call	#0x4abc	
    4b56:	03 3c       	jmp	$+8      	;abs 0x4b5e
    4b58:	7f 42       	mov.b	#8,	r15	;r2 As==11
    4b5a:	b0 12 b2 49 	call	#0x49b2	
    4b5e:	4f 4b       	mov.b	r11,	r15	
    4b60:	39 41       	pop	r9		
    4b62:	3a 41       	pop	r10		
    4b64:	3b 41       	pop	r11		
    4b66:	30 41       	ret			

00004b68 <CC2420ReceiveP__receive>:
    4b68:	b0 12 a2 49 	call	#0x49a2	
    4b6c:	5e 43       	mov.b	#1,	r14	;r3 As==01
    4b6e:	1f 42 36 11 	mov	&0x1136,r15	
    4b72:	b0 12 00 4b 	call	#0x4b00	
    4b76:	30 41       	ret			

00004b78 <CC2420TransmitP__Send__sendDone.isra.101>:
    4b78:	0b 12       	push	r11		
    4b7a:	4b 4f       	mov.b	r15,	r11	
    4b7c:	b0 12 a2 48 	call	#0x48a2	
    4b80:	c2 4b 30 11 	mov.b	r11,	&0x1130	
    4b84:	b0 12 b4 48 	call	#0x48b4	
    4b88:	6f 42       	mov.b	#4,	r15	;r2 As==10
    4b8a:	b0 12 b2 49 	call	#0x49b2	
    4b8e:	3b 41       	pop	r11		
    4b90:	30 41       	ret			

00004b92 <CC2420TransmitP__signalDone>:
    4b92:	0b 12       	push	r11		
    4b94:	4b 4f       	mov.b	r15,	r11	
    4b96:	92 43 1c 11 	mov	#1,	&0x111c	;r3 As==01
    4b9a:	c2 43 51 11 	mov.b	#0,	&0x1151	;r3 As==00
    4b9e:	b0 12 fe 49 	call	#0x49fe	
    4ba2:	4f 4b       	mov.b	r11,	r15	
    4ba4:	b0 12 78 4b 	call	#0x4b78	
    4ba8:	3b 41       	pop	r11		
    4baa:	30 41       	ret			

00004bac <Msp430GpioC__4__GeneralIO__set>:
    4bac:	b0 12 a2 48 	call	#0x48a2	
    4bb0:	e2 d2 1d 00 	bis.b	#4,	&0x001d	;r2 As==10
    4bb4:	b0 12 b4 48 	call	#0x48b4	
    4bb8:	30 41       	ret			

00004bba <CC2420SpiP__Resource__release>:
    4bba:	0b 12       	push	r11		
    4bbc:	0a 12       	push	r10		
    4bbe:	09 12       	push	r9		
    4bc0:	4b 4f       	mov.b	r15,	r11	
    4bc2:	b0 12 a2 48 	call	#0x48a2	
    4bc6:	4a 4f       	mov.b	r15,	r10	
    4bc8:	c2 9b 0b 11 	cmp.b	r11,	&0x110b	
    4bcc:	04 24       	jz	$+10     	;abs 0x4bd6
    4bce:	b0 12 b4 48 	call	#0x48b4	
    4bd2:	5f 43       	mov.b	#1,	r15	;r3 As==01
    4bd4:	4c 3c       	jmp	$+154    	;abs 0x4c6e
    4bd6:	f2 43 0b 11 	mov.b	#-1,	&0x110b	;r3 As==11
    4bda:	5b 42 2c 11 	mov.b	&0x112c,r11	
    4bde:	4b 93       	tst.b	r11		
    4be0:	09 20       	jnz	$+20     	;abs 0x4bf4
    4be2:	b0 12 a2 48 	call	#0x48a2	
    4be6:	c2 43 b4 11 	mov.b	#0,	&0x11b4	;r3 As==00
    4bea:	b0 12 b4 48 	call	#0x48b4	
    4bee:	b0 12 fe 49 	call	#0x49fe	
    4bf2:	35 3c       	jmp	$+108    	;abs 0x4c5e
    4bf4:	4c 43       	clr.b	r12		
    4bf6:	49 4b       	mov.b	r11,	r9	
    4bf8:	02 12       	push	r2		
    4bfa:	32 c2       	dint			
    4bfc:	03 43       	nop			
    4bfe:	c2 4c 30 01 	mov.b	r12,	&0x0130	
    4c02:	f2 40 cd ff 38 01 	mov.b	#-51,	&0x0138	;#0xffcd
    4c08:	1e 42 3a 01 	mov	&0x013a,r14	
    4c0c:	32 41       	pop	r2		
    4c0e:	8e 10       	swpb	r14		
    4c10:	12 c3       	clrc			
    4c12:	4e 10       	rrc.b	r14		
    4c14:	12 c3       	clrc			
    4c16:	4e 10       	rrc.b	r14		
    4c18:	4d 4e       	mov.b	r14,	r13	
    4c1a:	4d 5d       	rla.b	r13		
    4c1c:	4d 5d       	rla.b	r13		
    4c1e:	4e 5d       	add.b	r13,	r14	
    4c20:	4c 8e       	sub.b	r14,	r12	
    4c22:	4e 4c       	mov.b	r12,	r14	
    4c24:	4f 4c       	mov.b	r12,	r15	
    4c26:	0d 49       	mov	r9,	r13	
    4c28:	7c f0 0f 00 	and.b	#15,	r12	;#0x000f
    4c2c:	4c 93       	tst.b	r12		
    4c2e:	03 24       	jz	$+8      	;abs 0x4c36
    4c30:	0d 11       	rra	r13		
    4c32:	7c 53       	add.b	#-1,	r12	;r3 As==11
    4c34:	fb 3f       	jmp	$-8      	;abs 0x4c2c
    4c36:	1d f3       	and	#1,	r13	;r3 As==01
    4c38:	17 24       	jz	$+48     	;abs 0x4c68
    4c3a:	c2 4e 0b 11 	mov.b	r14,	&0x110b	
    4c3e:	1e 43       	mov	#1,	r14	;r3 As==01
    4c40:	4d 4f       	mov.b	r15,	r13	
    4c42:	7d f0 0f 00 	and.b	#15,	r13	;#0x000f
    4c46:	4d 93       	tst.b	r13		
    4c48:	03 24       	jz	$+8      	;abs 0x4c50
    4c4a:	0e 5e       	rla	r14		
    4c4c:	7d 53       	add.b	#-1,	r13	;r3 As==11
    4c4e:	fb 3f       	jmp	$-8      	;abs 0x4c46
    4c50:	4b ce       	bic.b	r14,	r11	
    4c52:	c2 4b 2c 11 	mov.b	r11,	&0x112c	
    4c56:	7f 40 07 00 	mov.b	#7,	r15	;#0x0007
    4c5a:	b0 12 b2 49 	call	#0x49b2	
    4c5e:	4f 4a       	mov.b	r10,	r15	
    4c60:	b0 12 b4 48 	call	#0x48b4	
    4c64:	4f 43       	clr.b	r15		
    4c66:	03 3c       	jmp	$+8      	;abs 0x4c6e
    4c68:	4c 4e       	mov.b	r14,	r12	
    4c6a:	5c 53       	inc.b	r12		
    4c6c:	c5 3f       	jmp	$-116    	;abs 0x4bf8
    4c6e:	39 41       	pop	r9		
    4c70:	3a 41       	pop	r10		
    4c72:	3b 41       	pop	r11		
    4c74:	30 41       	ret			

00004c76 <CC2420TransmitP__releaseSpiResource>:
    4c76:	7f 40 03 00 	mov.b	#3,	r15	;#0x0003
    4c7a:	b0 12 ba 4b 	call	#0x4bba	
    4c7e:	4f 43       	clr.b	r15		
    4c80:	30 41       	ret			

00004c82 <TransformAlarmC__1__Counter__get>:
    4c82:	0b 12       	push	r11		
    4c84:	0a 12       	push	r10		
    4c86:	09 12       	push	r9		
    4c88:	b0 12 a2 48 	call	#0x48a2	
    4c8c:	49 4f       	mov.b	r15,	r9	
    4c8e:	1b 42 7c 11 	mov	&0x117c,r11	
    4c92:	b0 12 ba 45 	call	#0x45ba	
    4c96:	0a 4f       	mov	r15,	r10	
    4c98:	1f 42 80 01 	mov	&0x0180,r15	
    4c9c:	5f f3       	and.b	#1,	r15	;r3 As==01
    4c9e:	04 24       	jz	$+10     	;abs 0x4ca8
    4ca0:	1b 53       	inc	r11		
    4ca2:	b0 12 ba 45 	call	#0x45ba	
    4ca6:	0a 4f       	mov	r15,	r10	
    4ca8:	0c 43       	clr	r12		
    4caa:	0d 43       	clr	r13		
    4cac:	0d 4b       	mov	r11,	r13	
    4cae:	0e 4a       	mov	r10,	r14	
    4cb0:	0f 43       	clr	r15		
    4cb2:	0a 4c       	mov	r12,	r10	
    4cb4:	0b 4d       	mov	r13,	r11	
    4cb6:	0a de       	bis	r14,	r10	
    4cb8:	0b df       	bis	r15,	r11	
    4cba:	4f 49       	mov.b	r9,	r15	
    4cbc:	b0 12 b4 48 	call	#0x48b4	
    4cc0:	0e 4a       	mov	r10,	r14	
    4cc2:	0f 4b       	mov	r11,	r15	
    4cc4:	39 41       	pop	r9		
    4cc6:	3a 41       	pop	r10		
    4cc8:	3b 41       	pop	r11		
    4cca:	30 41       	ret			

00004ccc <TransformAlarmC__1__set_alarm>:
    4ccc:	0b 12       	push	r11		
    4cce:	0a 12       	push	r10		
    4cd0:	09 12       	push	r9		
    4cd2:	08 12       	push	r8		
    4cd4:	b0 12 82 4c 	call	#0x4c82	
    4cd8:	08 4e       	mov	r14,	r8	
    4cda:	09 4f       	mov	r15,	r9	
    4cdc:	1e 42 38 11 	mov	&0x1138,r14	
    4ce0:	1f 42 3a 11 	mov	&0x113a,r15	
    4ce4:	0a 4e       	mov	r14,	r10	
    4ce6:	0b 4f       	mov	r15,	r11	
    4ce8:	1a 52 68 11 	add	&0x1168,r10	
    4cec:	1b 62 6a 11 	addc	&0x116a,r11	
    4cf0:	09 9f       	cmp	r15,	r9	
    4cf2:	09 28       	jnc	$+20     	;abs 0x4d06
    4cf4:	02 20       	jnz	$+6      	;abs 0x4cfa
    4cf6:	08 9e       	cmp	r14,	r8	
    4cf8:	06 28       	jnc	$+14     	;abs 0x4d06
    4cfa:	0b 9f       	cmp	r15,	r11	
    4cfc:	10 28       	jnc	$+34     	;abs 0x4d1e
    4cfe:	09 20       	jnz	$+20     	;abs 0x4d12
    4d00:	0a 9e       	cmp	r14,	r10	
    4d02:	0d 28       	jnc	$+28     	;abs 0x4d1e
    4d04:	06 3c       	jmp	$+14     	;abs 0x4d12
    4d06:	0b 9f       	cmp	r15,	r11	
    4d08:	04 28       	jnc	$+10     	;abs 0x4d12
    4d0a:	0f 9b       	cmp	r11,	r15	
    4d0c:	27 28       	jnc	$+80     	;abs 0x4d5c
    4d0e:	0a 9e       	cmp	r14,	r10	
    4d10:	25 2c       	jc	$+76     	;abs 0x4d5c
    4d12:	09 9b       	cmp	r11,	r9	
    4d14:	04 28       	jnc	$+10     	;abs 0x4d1e
    4d16:	0b 99       	cmp	r9,	r11	
    4d18:	21 28       	jnc	$+68     	;abs 0x4d5c
    4d1a:	08 9a       	cmp	r10,	r8	
    4d1c:	1f 2c       	jc	$+64     	;abs 0x4d5c
    4d1e:	0c 4a       	mov	r10,	r12	
    4d20:	0d 4b       	mov	r11,	r13	
    4d22:	0c 88       	sub	r8,	r12	
    4d24:	0d 79       	subc	r9,	r13	
    4d26:	0d 93       	tst	r13		
    4d28:	03 20       	jnz	$+8      	;abs 0x4d30
    4d2a:	3c 90 01 80 	cmp	#-32767,r12	;#0x8001
    4d2e:	18 28       	jnc	$+50     	;abs 0x4d60
    4d30:	0e 48       	mov	r8,	r14	
    4d32:	0f 49       	mov	r9,	r15	
    4d34:	3e 50 00 80 	add	#-32768,r14	;#0x8000
    4d38:	0f 63       	adc	r15		
    4d3a:	82 4e 38 11 	mov	r14,	&0x1138	
    4d3e:	82 4f 3a 11 	mov	r15,	&0x113a	
    4d42:	0e 4c       	mov	r12,	r14	
    4d44:	0f 4d       	mov	r13,	r15	
    4d46:	3e 50 00 80 	add	#-32768,r14	;#0x8000
    4d4a:	3f 63       	addc	#-1,	r15	;r3 As==11
    4d4c:	82 4e 68 11 	mov	r14,	&0x1168	
    4d50:	82 4f 6a 11 	mov	r15,	&0x116a	
    4d54:	3c 40 00 80 	mov	#-32768,r12	;#0x8000
    4d58:	0d 43       	clr	r13		
    4d5a:	0a 3c       	jmp	$+22     	;abs 0x4d70
    4d5c:	0c 43       	clr	r12		
    4d5e:	0d 43       	clr	r13		
    4d60:	82 4a 38 11 	mov	r10,	&0x1138	
    4d64:	82 4b 3a 11 	mov	r11,	&0x113a	
    4d68:	82 43 68 11 	mov	#0,	&0x1168	;r3 As==00
    4d6c:	82 43 6a 11 	mov	#0,	&0x116a	;r3 As==00
    4d70:	0a 4c       	mov	r12,	r10	
    4d72:	b0 12 ba 45 	call	#0x45ba	
    4d76:	0e 4f       	mov	r15,	r14	
    4d78:	0e 88       	sub	r8,	r14	
    4d7a:	0e 9a       	cmp	r10,	r14	
    4d7c:	05 2c       	jc	$+12     	;abs 0x4d88
    4d7e:	0c 4a       	mov	r10,	r12	
    4d80:	0c 8e       	sub	r14,	r12	
    4d82:	3c 90 03 00 	cmp	#3,	r12	;#0x0003
    4d86:	06 2c       	jc	$+14     	;abs 0x4d94
    4d88:	b0 12 ba 45 	call	#0x45ba	
    4d8c:	2f 53       	incd	r15		
    4d8e:	82 4f 96 01 	mov	r15,	&0x0196	
    4d92:	03 3c       	jmp	$+8      	;abs 0x4d9a
    4d94:	0c 5f       	add	r15,	r12	
    4d96:	82 4c 96 01 	mov	r12,	&0x0196	
    4d9a:	b2 f0 fe ff 86 01 	and	#-2,	&0x0186	;#0xfffe
    4da0:	b2 d0 10 00 86 01 	bis	#16,	&0x0186	;#0x0010
    4da6:	38 41       	pop	r8		
    4da8:	39 41       	pop	r9		
    4daa:	3a 41       	pop	r10		
    4dac:	3b 41       	pop	r11		
    4dae:	30 41       	ret			

00004db0 <TransformAlarmC__1__Alarm__start>:
    4db0:	0b 12       	push	r11		
    4db2:	0a 12       	push	r10		
    4db4:	09 12       	push	r9		
    4db6:	08 12       	push	r8		
    4db8:	21 83       	decd	r1		
    4dba:	0a 4e       	mov	r14,	r10	
    4dbc:	0b 4f       	mov	r15,	r11	
    4dbe:	b0 12 82 4c 	call	#0x4c82	
    4dc2:	08 4e       	mov	r14,	r8	
    4dc4:	09 4f       	mov	r15,	r9	
    4dc6:	b0 12 a2 48 	call	#0x48a2	
    4dca:	82 48 38 11 	mov	r8,	&0x1138	
    4dce:	82 49 3a 11 	mov	r9,	&0x113a	
    4dd2:	82 4a 68 11 	mov	r10,	&0x1168	
    4dd6:	82 4b 6a 11 	mov	r11,	&0x116a	
    4dda:	81 4f 00 00 	mov	r15,	0(r1)	;0x0000(r1)
    4dde:	b0 12 cc 4c 	call	#0x4ccc	
    4de2:	2f 41       	mov	@r1,	r15	
    4de4:	b0 12 b4 48 	call	#0x48b4	
    4de8:	21 53       	incd	r1		
    4dea:	38 41       	pop	r8		
    4dec:	39 41       	pop	r9		
    4dee:	3a 41       	pop	r10		
    4df0:	3b 41       	pop	r11		
    4df2:	30 41       	ret			

00004df4 <CC2420TransmitP__congestionBackoff>:
    4df4:	0b 12       	push	r11		
    4df6:	b0 12 a2 48 	call	#0x48a2	
    4dfa:	4b 4f       	mov.b	r15,	r11	
    4dfc:	b0 12 0e 45 	call	#0x450e	
    4e00:	3e 40 46 00 	mov	#70,	r14	;#0x0046
    4e04:	b0 12 a0 6a 	call	#0x6aa0	
    4e08:	0e 4f       	mov	r15,	r14	
    4e0a:	3e 50 0b 00 	add	#11,	r14	;#0x000b
    4e0e:	82 4e 6a 12 	mov	r14,	&0x126a	
    4e12:	0f 43       	clr	r15		
    4e14:	b0 12 b0 4d 	call	#0x4db0	
    4e18:	4f 4b       	mov.b	r11,	r15	
    4e1a:	b0 12 b4 48 	call	#0x48b4	
    4e1e:	3b 41       	pop	r11		
    4e20:	30 41       	ret			

00004e22 <CC2420TransmitP__attemptSend>:
    4e22:	0b 12       	push	r11		
    4e24:	0a 12       	push	r10		
    4e26:	b0 12 a2 48 	call	#0x48a2	
    4e2a:	4a 4f       	mov.b	r15,	r10	
    4e2c:	b2 92 1c 11 	cmp	#8,	&0x111c	;r2 As==11
    4e30:	12 20       	jnz	$+38     	;abs 0x4e56
    4e32:	7f 40 09 00 	mov.b	#9,	r15	;#0x0009
    4e36:	b0 12 52 49 	call	#0x4952	
    4e3a:	b0 12 76 4c 	call	#0x4c76	
    4e3e:	b0 12 ac 4b 	call	#0x4bac	
    4e42:	92 43 1c 11 	mov	#1,	&0x111c	;r3 As==01
    4e46:	7f 40 03 00 	mov.b	#3,	r15	;#0x0003
    4e4a:	b0 12 78 4b 	call	#0x4b78	
    4e4e:	4f 4a       	mov.b	r10,	r15	
    4e50:	b0 12 b4 48 	call	#0x48b4	
    4e54:	2f 3c       	jmp	$+96     	;abs 0x4eb4
    4e56:	b0 12 a2 49 	call	#0x49a2	
    4e5a:	c2 93 6e 12 	tst.b	&0x126e	
    4e5e:	03 24       	jz	$+8      	;abs 0x4e66
    4e60:	7f 40 05 00 	mov.b	#5,	r15	;#0x0005
    4e64:	01 3c       	jmp	$+4      	;abs 0x4e68
    4e66:	6f 42       	mov.b	#4,	r15	;r2 As==10
    4e68:	b0 12 52 49 	call	#0x4952	
    4e6c:	4e 4f       	mov.b	r15,	r14	
    4e6e:	3e f2       	and	#8,	r14	;r2 As==11
    4e70:	05 20       	jnz	$+12     	;abs 0x4e7c
    4e72:	4f 43       	clr.b	r15		
    4e74:	b0 12 52 49 	call	#0x4952	
    4e78:	3f f2       	and	#8,	r15	;r2 As==11
    4e7a:	04 20       	jnz	$+10     	;abs 0x4e84
    4e7c:	5b 43       	mov.b	#1,	r11	;r3 As==01
    4e7e:	3f 40 03 00 	mov	#3,	r15	;#0x0003
    4e82:	03 3c       	jmp	$+8      	;abs 0x4e8a
    4e84:	4b 43       	clr.b	r11		
    4e86:	3f 40 05 00 	mov	#5,	r15	;#0x0005
    4e8a:	82 4f 1c 11 	mov	r15,	&0x111c	
    4e8e:	b0 12 ac 4b 	call	#0x4bac	
    4e92:	4f 4a       	mov.b	r10,	r15	
    4e94:	b0 12 b4 48 	call	#0x48b4	
    4e98:	4b 93       	tst.b	r11		
    4e9a:	07 24       	jz	$+16     	;abs 0x4eaa
    4e9c:	c2 43 3c 11 	mov.b	#0,	&0x113c	;r3 As==00
    4ea0:	b0 12 76 4c 	call	#0x4c76	
    4ea4:	b0 12 f4 4d 	call	#0x4df4	
    4ea8:	05 3c       	jmp	$+12     	;abs 0x4eb4
    4eaa:	3e 40 40 01 	mov	#320,	r14	;#0x0140
    4eae:	0f 43       	clr	r15		
    4eb0:	b0 12 b0 4d 	call	#0x4db0	
    4eb4:	3a 41       	pop	r10		
    4eb6:	3b 41       	pop	r11		
    4eb8:	30 41       	ret			

00004eba <CC2420SpiP__Reg__write>:
    4eba:	0b 12       	push	r11		
    4ebc:	0a 12       	push	r10		
    4ebe:	09 12       	push	r9		
    4ec0:	49 4f       	mov.b	r15,	r9	
    4ec2:	0a 4e       	mov	r14,	r10	
    4ec4:	b0 12 a2 48 	call	#0x48a2	
    4ec8:	4b 4f       	mov.b	r15,	r11	
    4eca:	b0 12 38 49 	call	#0x4938	
    4ece:	4f 93       	tst.b	r15		
    4ed0:	05 24       	jz	$+12     	;abs 0x4edc
    4ed2:	4f 4b       	mov.b	r11,	r15	
    4ed4:	b0 12 b4 48 	call	#0x48b4	
    4ed8:	4f 43       	clr.b	r15		
    4eda:	0d 3c       	jmp	$+28     	;abs 0x4ef6
    4edc:	4f 4b       	mov.b	r11,	r15	
    4ede:	b0 12 b4 48 	call	#0x48b4	
    4ee2:	4f 49       	mov.b	r9,	r15	
    4ee4:	b0 12 66 45 	call	#0x4566	
    4ee8:	0f 4a       	mov	r10,	r15	
    4eea:	8f 10       	swpb	r15		
    4eec:	b0 12 66 45 	call	#0x4566	
    4ef0:	4f 4a       	mov.b	r10,	r15	
    4ef2:	b0 12 66 45 	call	#0x4566	
    4ef6:	39 41       	pop	r9		
    4ef8:	3a 41       	pop	r10		
    4efa:	3b 41       	pop	r11		
    4efc:	30 41       	ret			

00004efe <CC2420SpiP__Ram__write>:
    4efe:	0b 12       	push	r11		
    4f00:	0a 12       	push	r10		
    4f02:	09 12       	push	r9		
    4f04:	08 12       	push	r8		
    4f06:	07 12       	push	r7		
    4f08:	08 4f       	mov	r15,	r8	
    4f0a:	4a 4e       	mov.b	r14,	r10	
    4f0c:	07 4d       	mov	r13,	r7	
    4f0e:	4b 4c       	mov.b	r12,	r11	
    4f10:	b0 12 a2 48 	call	#0x48a2	
    4f14:	49 4f       	mov.b	r15,	r9	
    4f16:	b0 12 38 49 	call	#0x4938	
    4f1a:	4f 93       	tst.b	r15		
    4f1c:	05 24       	jz	$+12     	;abs 0x4f28
    4f1e:	4f 49       	mov.b	r9,	r15	
    4f20:	b0 12 b4 48 	call	#0x48b4	
    4f24:	4f 43       	clr.b	r15		
    4f26:	21 3c       	jmp	$+68     	;abs 0x4f6a
    4f28:	4f 49       	mov.b	r9,	r15	
    4f2a:	b0 12 b4 48 	call	#0x48b4	
    4f2e:	4a 4a       	mov.b	r10,	r10	
    4f30:	0a 58       	add	r8,	r10	
    4f32:	4f 4a       	mov.b	r10,	r15	
    4f34:	7f d0 80 ff 	bis.b	#-128,	r15	;#0xff80
    4f38:	b0 12 66 45 	call	#0x4566	
    4f3c:	49 4f       	mov.b	r15,	r9	
    4f3e:	0e 4a       	mov	r10,	r14	
    4f40:	12 c3       	clrc			
    4f42:	0e 10       	rrc	r14		
    4f44:	4f 4e       	mov.b	r14,	r15	
    4f46:	7f f0 c0 ff 	and.b	#-64,	r15	;#0xffc0
    4f4a:	b0 12 66 45 	call	#0x4566	
    4f4e:	4a 4b       	mov.b	r11,	r10	
    4f50:	09 3c       	jmp	$+20     	;abs 0x4f64
    4f52:	4e 4b       	mov.b	r11,	r14	
    4f54:	0f 4a       	mov	r10,	r15	
    4f56:	0f 8e       	sub	r14,	r15	
    4f58:	0e 4f       	mov	r15,	r14	
    4f5a:	0e 57       	add	r7,	r14	
    4f5c:	6f 4e       	mov.b	@r14,	r15	
    4f5e:	b0 12 66 45 	call	#0x4566	
    4f62:	7b 53       	add.b	#-1,	r11	;r3 As==11
    4f64:	4b 93       	tst.b	r11		
    4f66:	f5 23       	jnz	$-20     	;abs 0x4f52
    4f68:	4f 49       	mov.b	r9,	r15	
    4f6a:	37 41       	pop	r7		
    4f6c:	38 41       	pop	r8		
    4f6e:	39 41       	pop	r9		
    4f70:	3a 41       	pop	r10		
    4f72:	3b 41       	pop	r11		
    4f74:	30 41       	ret			

00004f76 <CC2420ControlP__writeId>:
    4f76:	0b 12       	push	r11		
    4f78:	31 50 f4 ff 	add	#-12,	r1	;#0xfff4
    4f7c:	b0 12 a2 48 	call	#0x48a2	
    4f80:	4b 4f       	mov.b	r15,	r11	
    4f82:	3d 42       	mov	#8,	r13	;r2 As==11
    4f84:	3e 40 f8 11 	mov	#4600,	r14	;#0x11f8
    4f88:	0f 41       	mov	r1,	r15	
    4f8a:	b0 12 c8 6a 	call	#0x6ac8	
    4f8e:	1e 42 70 11 	mov	&0x1170,r14	
    4f92:	c1 4e 08 00 	mov.b	r14,	8(r1)	;0x0008(r1)
    4f96:	8e 10       	swpb	r14		
    4f98:	c1 4e 09 00 	mov.b	r14,	9(r1)	;0x0009(r1)
    4f9c:	1e 42 8a 11 	mov	&0x118a,r14	
    4fa0:	c1 4e 0a 00 	mov.b	r14,	10(r1)	;0x000a(r1)
    4fa4:	8e 10       	swpb	r14		
    4fa6:	c1 4e 0b 00 	mov.b	r14,	11(r1)	;0x000b(r1)
    4faa:	4f 4b       	mov.b	r11,	r15	
    4fac:	b0 12 b4 48 	call	#0x48b4	
    4fb0:	7c 40 0c 00 	mov.b	#12,	r12	;#0x000c
    4fb4:	0d 41       	mov	r1,	r13	
    4fb6:	4e 43       	clr.b	r14		
    4fb8:	3f 40 60 01 	mov	#352,	r15	;#0x0160
    4fbc:	b0 12 fe 4e 	call	#0x4efe	
    4fc0:	31 50 0c 00 	add	#12,	r1	;#0x000c
    4fc4:	3b 41       	pop	r11		
    4fc6:	30 41       	ret			

00004fc8 <LedsP__Led0__set>:
    4fc8:	b0 12 a2 48 	call	#0x48a2	
    4fcc:	f2 d0 10 00 31 00 	bis.b	#16,	&0x0031	;#0x0010
    4fd2:	b0 12 b4 48 	call	#0x48b4	
    4fd6:	30 41       	ret			

00004fd8 <LedsP__Led1__set>:
    4fd8:	b0 12 a2 48 	call	#0x48a2	
    4fdc:	f2 d0 20 00 31 00 	bis.b	#32,	&0x0031	;#0x0020
    4fe2:	b0 12 b4 48 	call	#0x48b4	
    4fe6:	30 41       	ret			

00004fe8 <LedsP__Led2__set>:
    4fe8:	b0 12 a2 48 	call	#0x48a2	
    4fec:	f2 d0 40 00 31 00 	bis.b	#64,	&0x0031	;#0x0040
    4ff2:	b0 12 b4 48 	call	#0x48b4	
    4ff6:	30 41       	ret			

00004ff8 <TransformAlarmC__0__Counter__get>:
    4ff8:	0b 12       	push	r11		
    4ffa:	0a 12       	push	r10		
    4ffc:	09 12       	push	r9		
    4ffe:	08 12       	push	r8		
    5000:	07 12       	push	r7		
    5002:	b0 12 a2 48 	call	#0x48a2	
    5006:	47 4f       	mov.b	r15,	r7	
    5008:	1a 42 98 11 	mov	&0x1198,r10	
    500c:	1b 42 9a 11 	mov	&0x119a,r11	
    5010:	b0 12 ba 45 	call	#0x45ba	
    5014:	0d 4f       	mov	r15,	r13	
    5016:	1f 42 80 01 	mov	&0x0180,r15	
    501a:	5f f3       	and.b	#1,	r15	;r3 As==01
    501c:	05 24       	jz	$+12     	;abs 0x5028
    501e:	1a 53       	inc	r10		
    5020:	0b 63       	adc	r11		
    5022:	b0 12 ba 45 	call	#0x45ba	
    5026:	0d 4f       	mov	r15,	r13	
    5028:	12 c3       	clrc			
    502a:	0d 10       	rrc	r13		
    502c:	12 c3       	clrc			
    502e:	0d 10       	rrc	r13		
    5030:	12 c3       	clrc			
    5032:	0d 10       	rrc	r13		
    5034:	12 c3       	clrc			
    5036:	0d 10       	rrc	r13		
    5038:	12 c3       	clrc			
    503a:	0d 10       	rrc	r13		
    503c:	08 4d       	mov	r13,	r8	
    503e:	09 43       	clr	r9		
    5040:	0e 4a       	mov	r10,	r14	
    5042:	0f 4b       	mov	r11,	r15	
    5044:	4f ea       	xor.b	r10,	r15	
    5046:	0f ea       	xor	r10,	r15	
    5048:	8f 10       	swpb	r15		
    504a:	4e 4e       	mov.b	r14,	r14	
    504c:	8e 10       	swpb	r14		
    504e:	0e 5e       	rla	r14		
    5050:	0f 6f       	rlc	r15		
    5052:	0e 5e       	rla	r14		
    5054:	0f 6f       	rlc	r15		
    5056:	0e 5e       	rla	r14		
    5058:	0f 6f       	rlc	r15		
    505a:	08 de       	bis	r14,	r8	
    505c:	09 df       	bis	r15,	r9	
    505e:	4f 47       	mov.b	r7,	r15	
    5060:	b0 12 b4 48 	call	#0x48b4	
    5064:	0e 48       	mov	r8,	r14	
    5066:	0f 49       	mov	r9,	r15	
    5068:	37 41       	pop	r7		
    506a:	38 41       	pop	r8		
    506c:	39 41       	pop	r9		
    506e:	3a 41       	pop	r10		
    5070:	3b 41       	pop	r11		
    5072:	30 41       	ret			

00005074 <TransformAlarmC__0__set_alarm>:
    5074:	0b 12       	push	r11		
    5076:	0a 12       	push	r10		
    5078:	09 12       	push	r9		
    507a:	08 12       	push	r8		
    507c:	b0 12 f8 4f 	call	#0x4ff8	
    5080:	08 4e       	mov	r14,	r8	
    5082:	09 4f       	mov	r15,	r9	
    5084:	1e 42 86 11 	mov	&0x1186,r14	
    5088:	1f 42 88 11 	mov	&0x1188,r15	
    508c:	0a 4e       	mov	r14,	r10	
    508e:	0b 4f       	mov	r15,	r11	
    5090:	1a 52 80 11 	add	&0x1180,r10	
    5094:	1b 62 82 11 	addc	&0x1182,r11	
    5098:	09 9f       	cmp	r15,	r9	
    509a:	09 28       	jnc	$+20     	;abs 0x50ae
    509c:	02 20       	jnz	$+6      	;abs 0x50a2
    509e:	08 9e       	cmp	r14,	r8	
    50a0:	06 28       	jnc	$+14     	;abs 0x50ae
    50a2:	0b 9f       	cmp	r15,	r11	
    50a4:	10 28       	jnc	$+34     	;abs 0x50c6
    50a6:	09 20       	jnz	$+20     	;abs 0x50ba
    50a8:	0a 9e       	cmp	r14,	r10	
    50aa:	0d 28       	jnc	$+28     	;abs 0x50c6
    50ac:	06 3c       	jmp	$+14     	;abs 0x50ba
    50ae:	0b 9f       	cmp	r15,	r11	
    50b0:	04 28       	jnc	$+10     	;abs 0x50ba
    50b2:	0f 9b       	cmp	r11,	r15	
    50b4:	27 28       	jnc	$+80     	;abs 0x5104
    50b6:	0a 9e       	cmp	r14,	r10	
    50b8:	25 2c       	jc	$+76     	;abs 0x5104
    50ba:	09 9b       	cmp	r11,	r9	
    50bc:	04 28       	jnc	$+10     	;abs 0x50c6
    50be:	0b 99       	cmp	r9,	r11	
    50c0:	21 28       	jnc	$+68     	;abs 0x5104
    50c2:	08 9a       	cmp	r10,	r8	
    50c4:	1f 2c       	jc	$+64     	;abs 0x5104
    50c6:	0c 4a       	mov	r10,	r12	
    50c8:	0d 4b       	mov	r11,	r13	
    50ca:	0c 88       	sub	r8,	r12	
    50cc:	0d 79       	subc	r9,	r13	
    50ce:	0d 93       	tst	r13		
    50d0:	03 20       	jnz	$+8      	;abs 0x50d8
    50d2:	3c 90 01 04 	cmp	#1025,	r12	;#0x0401
    50d6:	18 28       	jnc	$+50     	;abs 0x5108
    50d8:	0e 48       	mov	r8,	r14	
    50da:	0f 49       	mov	r9,	r15	
    50dc:	3e 50 00 04 	add	#1024,	r14	;#0x0400
    50e0:	0f 63       	adc	r15		
    50e2:	82 4e 86 11 	mov	r14,	&0x1186	
    50e6:	82 4f 88 11 	mov	r15,	&0x1188	
    50ea:	0e 4c       	mov	r12,	r14	
    50ec:	0f 4d       	mov	r13,	r15	
    50ee:	3e 50 00 fc 	add	#-1024,	r14	;#0xfc00
    50f2:	3f 63       	addc	#-1,	r15	;r3 As==11
    50f4:	82 4e 80 11 	mov	r14,	&0x1180	
    50f8:	82 4f 82 11 	mov	r15,	&0x1182	
    50fc:	3c 40 00 04 	mov	#1024,	r12	;#0x0400
    5100:	0d 43       	clr	r13		
    5102:	0a 3c       	jmp	$+22     	;abs 0x5118
    5104:	0c 43       	clr	r12		
    5106:	0d 43       	clr	r13		
    5108:	82 4a 86 11 	mov	r10,	&0x1186	
    510c:	82 4b 88 11 	mov	r11,	&0x1188	
    5110:	82 43 80 11 	mov	#0,	&0x1180	;r3 As==00
    5114:	82 43 82 11 	mov	#0,	&0x1182	;r3 As==00
    5118:	0a 4c       	mov	r12,	r10	
    511a:	0a 5a       	rla	r10		
    511c:	0a 5a       	rla	r10		
    511e:	0a 5a       	rla	r10		
    5120:	0a 5a       	rla	r10		
    5122:	0a 5a       	rla	r10		
    5124:	b0 12 ba 45 	call	#0x45ba	
    5128:	08 58       	rla	r8		
    512a:	08 58       	rla	r8		
    512c:	08 58       	rla	r8		
    512e:	08 58       	rla	r8		
    5130:	08 58       	rla	r8		
    5132:	0e 4f       	mov	r15,	r14	
    5134:	0e 88       	sub	r8,	r14	
    5136:	0e 9a       	cmp	r10,	r14	
    5138:	04 2c       	jc	$+10     	;abs 0x5142
    513a:	0a 8e       	sub	r14,	r10	
    513c:	3a 90 03 00 	cmp	#3,	r10	;#0x0003
    5140:	06 2c       	jc	$+14     	;abs 0x514e
    5142:	b0 12 ba 45 	call	#0x45ba	
    5146:	2f 53       	incd	r15		
    5148:	82 4f 92 01 	mov	r15,	&0x0192	
    514c:	03 3c       	jmp	$+8      	;abs 0x5154
    514e:	0a 5f       	add	r15,	r10	
    5150:	82 4a 92 01 	mov	r10,	&0x0192	
    5154:	b2 f0 fe ff 82 01 	and	#-2,	&0x0182	;#0xfffe
    515a:	b2 d0 10 00 82 01 	bis	#16,	&0x0182	;#0x0010
    5160:	38 41       	pop	r8		
    5162:	39 41       	pop	r9		
    5164:	3a 41       	pop	r10		
    5166:	3b 41       	pop	r11		
    5168:	30 41       	ret			

0000516a <CC2420CsmaP__SplitControlState__forceState>:
    516a:	0b 12       	push	r11		
    516c:	4b 4f       	mov.b	r15,	r11	
    516e:	b0 12 a2 48 	call	#0x48a2	
    5172:	c2 4b b5 11 	mov.b	r11,	&0x11b5	
    5176:	b0 12 b4 48 	call	#0x48b4	
    517a:	3b 41       	pop	r11		
    517c:	30 41       	ret			

0000517e <CC2420TransmitP__loadTXFIFO>:
    517e:	0b 12       	push	r11		
    5180:	0a 12       	push	r10		
    5182:	09 12       	push	r9		
    5184:	1b 42 74 11 	mov	&0x1174,r11	
    5188:	5a 4b 2a 00 	mov.b	42(r11),r10	;0x002a(r11)
    518c:	4a 93       	tst.b	r10		
    518e:	02 20       	jnz	$+6      	;abs 0x5194
    5190:	7a 40 1f 00 	mov.b	#31,	r10	;#0x001f
    5194:	b0 12 a2 49 	call	#0x49a2	
    5198:	c2 9a 64 11 	cmp.b	r10,	&0x1164	
    519c:	07 24       	jz	$+16     	;abs 0x51ac
    519e:	4e 4a       	mov.b	r10,	r14	
    51a0:	3e d0 e0 80 	bis	#-32544,r14	;#0x80e0
    51a4:	7f 40 15 00 	mov.b	#21,	r15	;#0x0015
    51a8:	b0 12 ba 4e 	call	#0x4eba	
    51ac:	c2 4a 64 11 	mov.b	r10,	&0x1164	
    51b0:	69 4b       	mov.b	@r11,	r9	
    51b2:	b0 12 a2 48 	call	#0x48a2	
    51b6:	4a 4f       	mov.b	r15,	r10	
    51b8:	b0 12 38 49 	call	#0x4938	
    51bc:	4f 93       	tst.b	r15		
    51be:	04 24       	jz	$+10     	;abs 0x51c8
    51c0:	4f 4a       	mov.b	r10,	r15	
    51c2:	b0 12 b4 48 	call	#0x48b4	
    51c6:	1f 3c       	jmp	$+64     	;abs 0x5206
    51c8:	4f 4a       	mov.b	r10,	r15	
    51ca:	b0 12 b4 48 	call	#0x48b4	
    51ce:	b2 40 3e 00 8e 11 	mov	#62,	&0x118e	;#0x003e
    51d4:	7f 40 3e 00 	mov.b	#62,	r15	;#0x003e
    51d8:	b0 12 66 45 	call	#0x4566	
    51dc:	4f 49       	mov.b	r9,	r15	
    51de:	7f 53       	add.b	#-1,	r15	;r3 As==11
    51e0:	4f 4f       	mov.b	r15,	r15	
    51e2:	c2 43 8c 11 	mov.b	#0,	&0x118c	;r3 As==00
    51e6:	82 4b 7e 11 	mov	r11,	&0x117e	
    51ea:	82 43 b0 11 	mov	#0,	&0x11b0	;r3 As==00
    51ee:	82 4f 62 12 	mov	r15,	&0x1262	
    51f2:	82 43 5e 12 	mov	#0,	&0x125e	;r3 As==00
    51f6:	0f 93       	tst	r15		
    51f8:	03 24       	jz	$+8      	;abs 0x5200
    51fa:	b0 12 bc 4a 	call	#0x4abc	
    51fe:	03 3c       	jmp	$+8      	;abs 0x5206
    5200:	7f 42       	mov.b	#8,	r15	;r2 As==11
    5202:	b0 12 b2 49 	call	#0x49b2	
    5206:	39 41       	pop	r9		
    5208:	3a 41       	pop	r10		
    520a:	3b 41       	pop	r11		
    520c:	30 41       	ret			

0000520e <CC2420ControlP__RSTN__clr>:
    520e:	b0 12 a2 48 	call	#0x48a2	
    5212:	f2 f0 bf ff 1d 00 	and.b	#-65,	&0x001d	;#0xffbf
    5218:	b0 12 b4 48 	call	#0x48b4	
    521c:	30 41       	ret			

0000521e <CC2420ControlP__RSTN__set>:
    521e:	b0 12 a2 48 	call	#0x48a2	
    5222:	f2 d0 40 00 1d 00 	bis.b	#64,	&0x001d	;#0x0040
    5228:	b0 12 b4 48 	call	#0x48b4	
    522c:	30 41       	ret			

0000522e <CC2420ControlP__writeFsctrl>:
    522e:	0b 12       	push	r11		
    5230:	b0 12 a2 48 	call	#0x48a2	
    5234:	5b 42 01 12 	mov.b	&0x1201,r11	
    5238:	b0 12 b4 48 	call	#0x48b4	
    523c:	0f 4b       	mov	r11,	r15	
    523e:	0f 5f       	rla	r15		
    5240:	0f 5f       	rla	r15		
    5242:	0f 5b       	add	r11,	r15	
    5244:	3f 50 2e 01 	add	#302,	r15	;#0x012e
    5248:	0e 4f       	mov	r15,	r14	
    524a:	3e d0 00 40 	bis	#16384,	r14	;#0x4000
    524e:	7f 40 18 00 	mov.b	#24,	r15	;#0x0018
    5252:	b0 12 ba 4e 	call	#0x4eba	
    5256:	3b 41       	pop	r11		
    5258:	30 41       	ret			

0000525a <CC2420ControlP__writeMdmctrl0>:
    525a:	0b 12       	push	r11		
    525c:	b0 12 a2 48 	call	#0x48a2	
    5260:	4b 4f       	mov.b	r15,	r11	
    5262:	c2 93 65 11 	tst.b	&0x1165	
    5266:	04 24       	jz	$+10     	;abs 0x5270
    5268:	1e 43       	mov	#1,	r14	;r3 As==01
    526a:	c2 93 69 12 	tst.b	&0x1269	
    526e:	01 20       	jnz	$+4      	;abs 0x5272
    5270:	0e 43       	clr	r14		
    5272:	4e 4e       	mov.b	r14,	r14	
    5274:	8e 10       	swpb	r14		
    5276:	0e 5e       	rla	r14		
    5278:	0e 5e       	rla	r14		
    527a:	0e 5e       	rla	r14		
    527c:	c2 93 72 11 	tst.b	&0x1172	
    5280:	04 24       	jz	$+10     	;abs 0x528a
    5282:	1d 43       	mov	#1,	r13	;r3 As==01
    5284:	c2 93 c2 11 	tst.b	&0x11c2	
    5288:	01 20       	jnz	$+4      	;abs 0x528c
    528a:	0d 43       	clr	r13		
    528c:	3e d0 e2 22 	bis	#8930,	r14	;#0x22e2
    5290:	0d 5d       	rla	r13		
    5292:	0d 5d       	rla	r13		
    5294:	0d 5d       	rla	r13		
    5296:	0d 5d       	rla	r13		
    5298:	0e dd       	bis	r13,	r14	
    529a:	7f 40 11 00 	mov.b	#17,	r15	;#0x0011
    529e:	b0 12 ba 4e 	call	#0x4eba	
    52a2:	4f 4b       	mov.b	r11,	r15	
    52a4:	b0 12 b4 48 	call	#0x48b4	
    52a8:	3b 41       	pop	r11		
    52aa:	30 41       	ret			

000052ac <HplMsp430Usart0P__Usart__setModeSpi.constprop.128>:
    52ac:	0b 12       	push	r11		
    52ae:	b0 12 a2 48 	call	#0x48a2	
    52b2:	4b 4f       	mov.b	r15,	r11	
    52b4:	5f 43       	mov.b	#1,	r15	;r3 As==01
    52b6:	b0 12 0c 48 	call	#0x480c	
    52ba:	f2 f0 da ff 70 00 	and.b	#-38,	&0x0070	;#0xffda
    52c0:	5f 43       	mov.b	#1,	r15	;r3 As==01
    52c2:	b0 12 0c 48 	call	#0x480c	
    52c6:	f2 f0 3f 00 04 00 	and.b	#63,	&0x0004	;#0x003f
    52cc:	3e 40 1b 00 	mov	#27,	r14	;#0x001b
    52d0:	fe f0 ef ff 00 00 	and.b	#-17,	0(r14)	;#0xffef, 0x0000(r14)
    52d6:	fe f0 df ff 00 00 	and.b	#-33,	0(r14)	;#0xffdf, 0x0000(r14)
    52dc:	3d 40 12 11 	mov	#4370,	r13	;#0x1112
    52e0:	6f 4d       	mov.b	@r13,	r15	
    52e2:	7f d0 05 00 	bis.b	#5,	r15	;#0x0005
    52e6:	c2 4f 70 00 	mov.b	r15,	&0x0070	
    52ea:	d2 4d 01 00 71 00 	mov.b	1(r13),	&0x0071	;0x0001(r13)
    52f0:	1d 42 10 11 	mov	&0x1110,r13	
    52f4:	c2 4d 74 00 	mov.b	r13,	&0x0074	
    52f8:	8d 10       	swpb	r13		
    52fa:	4d 4d       	mov.b	r13,	r13	
    52fc:	c2 4d 75 00 	mov.b	r13,	&0x0075	
    5300:	c2 43 73 00 	mov.b	#0,	&0x0073	;r3 As==00
    5304:	ee d3 00 00 	bis.b	#2,	0(r14)	;r3 As==10, 0x0000(r14)
    5308:	ee d2 00 00 	bis.b	#4,	0(r14)	;r2 As==10, 0x0000(r14)
    530c:	fe d2 00 00 	bis.b	#8,	0(r14)	;r2 As==11, 0x0000(r14)
    5310:	f2 d0 40 00 04 00 	bis.b	#64,	&0x0004	;#0x0040
    5316:	4f 43       	clr.b	r15		
    5318:	b0 12 0c 48 	call	#0x480c	
    531c:	f2 f0 3f 00 02 00 	and.b	#63,	&0x0002	;#0x003f
    5322:	f2 f0 3f 00 00 00 	and.b	#63,	&0x0000	;#0x003f
    5328:	4f 4b       	mov.b	r11,	r15	
    532a:	b0 12 b4 48 	call	#0x48b4	
    532e:	3b 41       	pop	r11		
    5330:	30 41       	ret			

00005332 <StateImplP__State__requestState.constprop.129>:
    5332:	0b 12       	push	r11		
    5334:	4b 4f       	mov.b	r15,	r11	
    5336:	b0 12 a2 48 	call	#0x48a2	
    533a:	4e 4b       	mov.b	r11,	r14	
    533c:	3e 50 b4 11 	add	#4532,	r14	;#0x11b4
    5340:	ce 93 00 00 	tst.b	0(r14)		;0x0000(r14)
    5344:	04 20       	jnz	$+10     	;abs 0x534e
    5346:	de 43 00 00 	mov.b	#1,	0(r14)	;r3 As==01, 0x0000(r14)
    534a:	4b 43       	clr.b	r11		
    534c:	01 3c       	jmp	$+4      	;abs 0x5350
    534e:	5b 43       	mov.b	#1,	r11	;r3 As==01
    5350:	b0 12 b4 48 	call	#0x48b4	
    5354:	4f 4b       	mov.b	r11,	r15	
    5356:	3b 41       	pop	r11		
    5358:	30 41       	ret			

0000535a <CC2420SpiP__Resource__request>:
    535a:	0b 12       	push	r11		
    535c:	0a 12       	push	r10		
    535e:	4b 4f       	mov.b	r15,	r11	
    5360:	b0 12 a2 48 	call	#0x48a2	
    5364:	4a 4f       	mov.b	r15,	r10	
    5366:	4f 43       	clr.b	r15		
    5368:	b0 12 32 53 	call	#0x5332	
    536c:	4f 93       	tst.b	r15		
    536e:	2f 20       	jnz	$+96     	;abs 0x53ce
    5370:	c2 4b 0b 11 	mov.b	r11,	&0x110b	
    5374:	c2 93 08 11 	tst.b	&0x1108	
    5378:	3c 20       	jnz	$+122    	;abs 0x53f2
    537a:	f2 90 03 00 2a 11 	cmp.b	#3,	&0x112a	;#0x0003
    5380:	38 20       	jnz	$+114    	;abs 0x53f2
    5382:	7f 40 07 00 	mov.b	#7,	r15	;#0x0007
    5386:	b0 12 b2 49 	call	#0x49b2	
    538a:	2c 3c       	jmp	$+90     	;abs 0x53e4
    538c:	d2 43 2a 11 	mov.b	#1,	&0x112a	;r3 As==01
    5390:	c2 43 00 12 	mov.b	#0,	&0x1200	;r3 As==00
    5394:	b0 12 88 4a 	call	#0x4a88	
    5398:	25 3c       	jmp	$+76     	;abs 0x53e4
    539a:	c2 93 00 12 	tst.b	&0x1200	
    539e:	22 24       	jz	$+70     	;abs 0x53e4
    53a0:	1e 43       	mov	#1,	r14	;r3 As==01
    53a2:	f2 93 84 11 	cmp.b	#-1,	&0x1184	;r3 As==11
    53a6:	04 20       	jnz	$+10     	;abs 0x53b0
    53a8:	c2 93 09 11 	tst.b	&0x1109	
    53ac:	01 24       	jz	$+4      	;abs 0x53b0
    53ae:	0e 43       	clr	r14		
    53b0:	0e 93       	tst	r14		
    53b2:	18 20       	jnz	$+50     	;abs 0x53e4
    53b4:	f2 93 0a 11 	cmp.b	#-1,	&0x110a	;r3 As==11
    53b8:	03 20       	jnz	$+8      	;abs 0x53c0
    53ba:	c2 43 0a 11 	mov.b	#0,	&0x110a	;r3 As==00
    53be:	04 3c       	jmp	$+10     	;abs 0x53c8
    53c0:	5e 42 09 11 	mov.b	&0x1109,r14	
    53c4:	ce 43 84 11 	mov.b	#0,	4484(r14);r3 As==00, 0x1184(r14)
    53c8:	c2 43 09 11 	mov.b	#0,	&0x1109	;r3 As==00
    53cc:	0b 3c       	jmp	$+24     	;abs 0x53e4
    53ce:	1e 43       	mov	#1,	r14	;r3 As==01
    53d0:	4d 4b       	mov.b	r11,	r13	
    53d2:	7d f0 0f 00 	and.b	#15,	r13	;#0x000f
    53d6:	4d 93       	tst.b	r13		
    53d8:	03 24       	jz	$+8      	;abs 0x53e0
    53da:	0e 5e       	rla	r14		
    53dc:	7d 53       	add.b	#-1,	r13	;r3 As==11
    53de:	fb 3f       	jmp	$-8      	;abs 0x53d6
    53e0:	c2 de 2c 11 	bis.b	r14,	&0x112c	
    53e4:	4f 4a       	mov.b	r10,	r15	
    53e6:	b0 12 b4 48 	call	#0x48b4	
    53ea:	4f 43       	clr.b	r15		
    53ec:	3a 41       	pop	r10		
    53ee:	3b 41       	pop	r11		
    53f0:	30 41       	ret			
    53f2:	c2 93 2a 11 	tst.b	&0x112a	
    53f6:	d1 23       	jnz	$-92     	;abs 0x539a
    53f8:	c9 3f       	jmp	$-108    	;abs 0x538c

000053fa <CC2420SpiP__Resource__immediateRequest>:
    53fa:	0b 12       	push	r11		
    53fc:	0a 12       	push	r10		
    53fe:	4b 4f       	mov.b	r15,	r11	
    5400:	b0 12 a2 48 	call	#0x48a2	
    5404:	4a 4f       	mov.b	r15,	r10	
    5406:	4f 43       	clr.b	r15		
    5408:	b0 12 32 53 	call	#0x5332	
    540c:	4f 93       	tst.b	r15		
    540e:	06 24       	jz	$+14     	;abs 0x541c
    5410:	4f 4a       	mov.b	r10,	r15	
    5412:	b0 12 b4 48 	call	#0x48b4	
    5416:	7f 40 05 00 	mov.b	#5,	r15	;#0x0005
    541a:	1e 3c       	jmp	$+62     	;abs 0x5458
    541c:	c2 93 08 11 	tst.b	&0x1108	
    5420:	1e 20       	jnz	$+62     	;abs 0x545e
    5422:	f2 90 03 00 2a 11 	cmp.b	#3,	&0x112a	;#0x0003
    5428:	1a 20       	jnz	$+54     	;abs 0x545e
    542a:	0b 3c       	jmp	$+24     	;abs 0x5442
    542c:	e2 43 2a 11 	mov.b	#2,	&0x112a	;r3 As==10
    5430:	c2 43 00 12 	mov.b	#0,	&0x1200	;r3 As==00
    5434:	b0 12 88 4a 	call	#0x4a88	
    5438:	c2 93 08 11 	tst.b	&0x1108	
    543c:	06 20       	jnz	$+14     	;abs 0x544a
    543e:	b0 12 ac 52 	call	#0x52ac	
    5442:	c2 4b 0b 11 	mov.b	r11,	&0x110b	
    5446:	4b 43       	clr.b	r11		
    5448:	03 3c       	jmp	$+8      	;abs 0x5450
    544a:	c2 43 2a 11 	mov.b	#0,	&0x112a	;r3 As==00
    544e:	0a 3c       	jmp	$+22     	;abs 0x5464
    5450:	4f 4a       	mov.b	r10,	r15	
    5452:	b0 12 b4 48 	call	#0x48b4	
    5456:	4f 4b       	mov.b	r11,	r15	
    5458:	3a 41       	pop	r10		
    545a:	3b 41       	pop	r11		
    545c:	30 41       	ret			
    545e:	c2 93 2a 11 	tst.b	&0x112a	
    5462:	e4 27       	jz	$-54     	;abs 0x542c
    5464:	b0 12 a2 48 	call	#0x48a2	
    5468:	c2 43 b4 11 	mov.b	#0,	&0x11b4	;r3 As==00
    546c:	b0 12 b4 48 	call	#0x48b4	
    5470:	5b 43       	mov.b	#1,	r11	;r3 As==01
    5472:	ee 3f       	jmp	$-34     	;abs 0x5450

00005474 <CC2420ReceiveP__beginReceive>:
    5474:	a2 43 60 11 	mov	#2,	&0x1160	;r3 As==10
    5478:	d2 43 6e 11 	mov.b	#1,	&0x116e	;r3 As==01
    547c:	e2 92 0b 11 	cmp.b	#4,	&0x110b	;r2 As==10
    5480:	05 24       	jz	$+12     	;abs 0x548c
    5482:	6f 42       	mov.b	#4,	r15	;r2 As==10
    5484:	b0 12 fa 53 	call	#0x53fa	
    5488:	4f 93       	tst.b	r15		
    548a:	03 20       	jnz	$+8      	;abs 0x5492
    548c:	b0 12 68 4b 	call	#0x4b68	
    5490:	30 41       	ret			
    5492:	6f 42       	mov.b	#4,	r15	;r2 As==10
    5494:	b0 12 5a 53 	call	#0x535a	
    5498:	30 41       	ret			

0000549a <CC2420ReceiveP__waitForNextPacket>:
    549a:	0b 12       	push	r11		
    549c:	b0 12 a2 48 	call	#0x48a2	
    54a0:	4b 4f       	mov.b	r15,	r11	
    54a2:	82 93 60 11 	tst	&0x1160	
    54a6:	18 24       	jz	$+50     	;abs 0x54d8
    54a8:	c2 43 6e 11 	mov.b	#0,	&0x116e	;r3 As==00
    54ac:	5e 42 66 11 	mov.b	&0x1166,r14	
    54b0:	4e 93       	tst.b	r14		
    54b2:	03 24       	jz	$+8      	;abs 0x54ba
    54b4:	f2 b2 20 00 	bit.b	#8,	&0x0020	;r2 As==11
    54b8:	05 20       	jnz	$+12     	;abs 0x54c4
    54ba:	d2 b3 20 00 	bit.b	#1,	&0x0020	;r3 As==01
    54be:	08 20       	jnz	$+18     	;abs 0x54d0
    54c0:	4e 93       	tst.b	r14		
    54c2:	03 24       	jz	$+8      	;abs 0x54ca
    54c4:	7e 53       	add.b	#-1,	r14	;r3 As==11
    54c6:	c2 4e 66 11 	mov.b	r14,	&0x1166	
    54ca:	b0 12 74 54 	call	#0x5474	
    54ce:	07 3c       	jmp	$+16     	;abs 0x54de
    54d0:	92 43 60 11 	mov	#1,	&0x1160	;r3 As==01
    54d4:	c2 43 66 11 	mov.b	#0,	&0x1166	;r3 As==00
    54d8:	6f 42       	mov.b	#4,	r15	;r2 As==10
    54da:	b0 12 ba 4b 	call	#0x4bba	
    54de:	4f 4b       	mov.b	r11,	r15	
    54e0:	b0 12 b4 48 	call	#0x48b4	
    54e4:	3b 41       	pop	r11		
    54e6:	30 41       	ret			

000054e8 <CC2420ReceiveP__flush>:
    54e8:	b0 12 6c 46 	call	#0x466c	
    54ec:	b0 12 ac 4b 	call	#0x4bac	
    54f0:	b0 12 a2 49 	call	#0x49a2	
    54f4:	7f 42       	mov.b	#8,	r15	;r2 As==11
    54f6:	b0 12 52 49 	call	#0x4952	
    54fa:	7f 42       	mov.b	#8,	r15	;r2 As==11
    54fc:	b0 12 52 49 	call	#0x4952	
    5500:	b0 12 ac 4b 	call	#0x4bac	
    5504:	6f 42       	mov.b	#4,	r15	;r2 As==10
    5506:	b0 12 ba 4b 	call	#0x4bba	
    550a:	b0 12 9a 54 	call	#0x549a	
    550e:	30 41       	ret			

00005510 <Msp430SpiNoDmaP__0__signalDone>:
    5510:	0b 12       	push	r11		
    5512:	0a 12       	push	r10		
    5514:	09 12       	push	r9		
    5516:	08 12       	push	r8		
    5518:	07 12       	push	r7		
    551a:	17 42 b0 11 	mov	&0x11b0,r7	
    551e:	c2 93 8c 11 	tst.b	&0x118c	
    5522:	02 24       	jz	$+6      	;abs 0x5528
    5524:	30 40 12 58 	br	#0x5812	
    5528:	1f 42 8e 11 	mov	&0x118e,r15	
    552c:	3f b0 40 00 	bit	#64,	r15	;#0x0040
    5530:	02 20       	jnz	$+6      	;abs 0x5536
    5532:	30 40 aa 57 	br	#0x57aa	
    5536:	7f f0 bf ff 	and.b	#-65,	r15	;#0xffbf
    553a:	7f 90 3f 00 	cmp.b	#63,	r15	;#0x003f
    553e:	02 24       	jz	$+6      	;abs 0x5544
    5540:	30 40 12 58 	br	#0x5812	
    5544:	1b 42 36 11 	mov	&0x1136,r11	
    5548:	6e 4b       	mov.b	@r11,	r14	
    554a:	c2 4e 62 11 	mov.b	r14,	&0x1162	
    554e:	1f 42 60 11 	mov	&0x1160,r15	
    5552:	3f 90 05 00 	cmp	#5,	r15	;#0x0005
    5556:	39 24       	jz	$+116    	;abs 0x55ca
    5558:	3f 90 06 00 	cmp	#6,	r15	;#0x0006
    555c:	84 24       	jz	$+266    	;abs 0x5666
    555e:	2f 93       	cmp	#2,	r15	;r3 As==10
    5560:	02 24       	jz	$+6      	;abs 0x5566
    5562:	30 40 9a 57 	br	#0x579a	
    5566:	b2 40 05 00 60 11 	mov	#5,	&0x1160	;#0x0005
    556c:	5d 42 50 11 	mov.b	&0x1150,r13	
    5570:	4d 9e       	cmp.b	r14,	r13	
    5572:	27 24       	jz	$+80     	;abs 0x55c2
    5574:	26 28       	jnc	$+78     	;abs 0x55c2
    5576:	f2 b2 20 00 	bit.b	#8,	&0x0020	;r2 As==11
    557a:	08 20       	jnz	$+18     	;abs 0x558c
    557c:	d2 b3 20 00 	bit.b	#1,	&0x0020	;r3 As==01
    5580:	05 20       	jnz	$+12     	;abs 0x558c
    5582:	4f 4e       	mov.b	r14,	r15	
    5584:	7f e3       	xor.b	#-1,	r15	;r3 As==11
    5586:	4f 5d       	add.b	r13,	r15	
    5588:	c2 4f 50 11 	mov.b	r15,	&0x1150	
    558c:	7e 90 2a 00 	cmp.b	#42,	r14	;#0x002a
    5590:	18 2c       	jc	$+50     	;abs 0x55c2
    5592:	4e 93       	tst.b	r14		
    5594:	0e 24       	jz	$+30     	;abs 0x55b2
    5596:	0f 4b       	mov	r11,	r15	
    5598:	1f 53       	inc	r15		
    559a:	7e 92       	cmp.b	#8,	r14	;r2 As==11
    559c:	03 28       	jnc	$+8      	;abs 0x55a4
    559e:	7e 40 07 00 	mov.b	#7,	r14	;#0x0007
    55a2:	03 3c       	jmp	$+8      	;abs 0x55aa
    55a4:	b2 40 06 00 60 11 	mov	#6,	&0x1160	;#0x0006
    55aa:	b0 12 d6 4a 	call	#0x4ad6	
    55ae:	30 40 12 58 	br	#0x5812	
    55b2:	c2 43 6e 11 	mov.b	#0,	&0x116e	;r3 As==00
    55b6:	b0 12 ac 4b 	call	#0x4bac	
    55ba:	6f 42       	mov.b	#4,	r15	;r2 As==10
    55bc:	b0 12 ba 4b 	call	#0x4bba	
    55c0:	e9 3c       	jmp	$+468    	;abs 0x5794
    55c2:	b0 12 e8 54 	call	#0x54e8	
    55c6:	30 40 12 58 	br	#0x5812	
    55ca:	b2 40 06 00 60 11 	mov	#6,	&0x1160	;#0x0006
    55d0:	c2 93 72 11 	tst.b	&0x1172	
    55d4:	41 24       	jz	$+132    	;abs 0x5658
    55d6:	c2 93 c2 11 	tst.b	&0x11c2	
    55da:	3e 20       	jnz	$+126    	;abs 0x5658
    55dc:	5f 4b 02 00 	mov.b	2(r11),	r15	;0x0002(r11)
    55e0:	8f 10       	swpb	r15		
    55e2:	5e 4b 01 00 	mov.b	1(r11),	r14	;0x0001(r11)
    55e6:	0f de       	bis	r14,	r15	
    55e8:	3f f0 20 00 	and	#32,	r15	;#0x0020
    55ec:	35 24       	jz	$+108    	;abs 0x5658
    55ee:	5a 4b 07 00 	mov.b	7(r11),	r10	;0x0007(r11)
    55f2:	8a 10       	swpb	r10		
    55f4:	5f 4b 06 00 	mov.b	6(r11),	r15	;0x0006(r11)
    55f8:	0a df       	bis	r15,	r10	
    55fa:	b0 12 a2 48 	call	#0x48a2	
    55fe:	19 42 8a 11 	mov	&0x118a,r9	
    5602:	b0 12 b4 48 	call	#0x48b4	
    5606:	0a 99       	cmp	r9,	r10	
    5608:	08 24       	jz	$+18     	;abs 0x561a
    560a:	5f 4b 07 00 	mov.b	7(r11),	r15	;0x0007(r11)
    560e:	8f 10       	swpb	r15		
    5610:	5e 4b 06 00 	mov.b	6(r11),	r14	;0x0006(r11)
    5614:	0f de       	bis	r14,	r15	
    5616:	3f 93       	cmp	#-1,	r15	;r3 As==11
    5618:	1f 20       	jnz	$+64     	;abs 0x5658
    561a:	5f 4b 02 00 	mov.b	2(r11),	r15	;0x0002(r11)
    561e:	8f 10       	swpb	r15		
    5620:	5e 4b 01 00 	mov.b	1(r11),	r14	;0x0001(r11)
    5624:	0f de       	bis	r14,	r15	
    5626:	3f f0 07 00 	and	#7,	r15	;#0x0007
    562a:	1f 93       	cmp	#1,	r15	;r3 As==01
    562c:	15 20       	jnz	$+44     	;abs 0x5658
    562e:	b0 12 ac 4b 	call	#0x4bac	
    5632:	b0 12 a2 49 	call	#0x49a2	
    5636:	7f 40 0a 00 	mov.b	#10,	r15	;#0x000a
    563a:	b0 12 52 49 	call	#0x4952	
    563e:	b0 12 ac 4b 	call	#0x4bac	
    5642:	b0 12 a2 49 	call	#0x49a2	
    5646:	5e 42 62 11 	mov.b	&0x1162,r14	
    564a:	7e 50 f9 ff 	add.b	#-7,	r14	;#0xfff9
    564e:	0f 4b       	mov	r11,	r15	
    5650:	3f 52       	add	#8,	r15	;r2 As==11
    5652:	b0 12 00 4b 	call	#0x4b00	
    5656:	dd 3c       	jmp	$+444    	;abs 0x5812
    5658:	5e 42 62 11 	mov.b	&0x1162,r14	
    565c:	7e 50 f9 ff 	add.b	#-7,	r14	;#0xfff9
    5660:	0f 4b       	mov	r11,	r15	
    5662:	3f 52       	add	#8,	r15	;r2 As==11
    5664:	a2 3f       	jmp	$-186    	;abs 0x55aa
    5666:	b0 12 ac 4b 	call	#0x4bac	
    566a:	c2 93 66 11 	tst.b	&0x1166	
    566e:	03 20       	jnz	$+8      	;abs 0x5676
    5670:	6f 42       	mov.b	#4,	r15	;r2 As==10
    5672:	b0 12 ba 4b 	call	#0x4bba	
    5676:	c2 93 66 11 	tst.b	&0x1166	
    567a:	03 24       	jz	$+8      	;abs 0x5682
    567c:	f2 b2 20 00 	bit.b	#8,	&0x0020	;r2 As==11
    5680:	0b 20       	jnz	$+24     	;abs 0x5698
    5682:	d2 b3 20 00 	bit.b	#1,	&0x0020	;r3 As==01
    5686:	08 24       	jz	$+18     	;abs 0x5698
    5688:	5a 42 5c 12 	mov.b	&0x125c,r10	
    568c:	4a 93       	tst.b	r10		
    568e:	04 24       	jz	$+10     	;abs 0x5698
    5690:	f2 90 0b 00 62 11 	cmp.b	#11,	&0x1162	;#0x000b
    5696:	0e 2c       	jc	$+30     	;abs 0x56b4
    5698:	1f 42 36 11 	mov	&0x1136,r15	
    569c:	cf 43 2d 00 	mov.b	#0,	45(r15)	;r3 As==00, 0x002d(r15)
    56a0:	cf 43 31 00 	mov.b	#0,	49(r15)	;r3 As==00, 0x0031(r15)
    56a4:	cf 43 30 00 	mov.b	#0,	48(r15)	;r3 As==00, 0x0030(r15)
    56a8:	cf 43 2f 00 	mov.b	#0,	47(r15)	;r3 As==00, 0x002f(r15)
    56ac:	ff 40 80 ff 2e 00 	mov.b	#-128,	46(r15)	;#0xff80, 0x002e(r15)
    56b2:	37 3c       	jmp	$+112    	;abs 0x5722
    56b4:	59 42 60 12 	mov.b	&0x1260,r9	
    56b8:	5a 93       	cmp.b	#1,	r10	;r3 As==01
    56ba:	19 20       	jnz	$+52     	;abs 0x56ee
    56bc:	0f 49       	mov	r9,	r15	
    56be:	0f 5f       	rla	r15		
    56c0:	0f 5f       	rla	r15		
    56c2:	3f 50 08 12 	add	#4616,	r15	;#0x1208
    56c6:	28 4f       	mov	@r15,	r8	
    56c8:	1c 4f 02 00 	mov	2(r15),	r12	;0x0002(r15)
    56cc:	1d 42 36 11 	mov	&0x1136,r13	
    56d0:	cd 48 31 00 	mov.b	r8,	49(r13)	;0x0031(r13)
    56d4:	0e 4c       	mov	r12,	r14	
    56d6:	0f 48       	mov	r8,	r15	
    56d8:	8f 10       	swpb	r15		
    56da:	8e 10       	swpb	r14		
    56dc:	4f ee       	xor.b	r14,	r15	
    56de:	0f ee       	xor	r14,	r15	
    56e0:	cd 4f 30 00 	mov.b	r15,	48(r13)	;0x0030(r13)
    56e4:	cd 4c 2f 00 	mov.b	r12,	47(r13)	;0x002f(r13)
    56e8:	8c 10       	swpb	r12		
    56ea:	cd 4c 2e 00 	mov.b	r12,	46(r13)	;0x002e(r13)
    56ee:	19 53       	inc	r9		
    56f0:	79 f0 07 00 	and.b	#7,	r9	;#0x0007
    56f4:	c2 49 60 12 	mov.b	r9,	&0x1260	
    56f8:	7a 53       	add.b	#-1,	r10	;r3 As==11
    56fa:	c2 4a 5c 12 	mov.b	r10,	&0x125c	
    56fe:	11 24       	jz	$+36     	;abs 0x5722
    5700:	1f 42 36 11 	mov	&0x1136,r15	
    5704:	cf 43 2d 00 	mov.b	#0,	45(r15)	;r3 As==00, 0x002d(r15)
    5708:	cf 43 31 00 	mov.b	#0,	49(r15)	;r3 As==00, 0x0031(r15)
    570c:	cf 43 30 00 	mov.b	#0,	48(r15)	;r3 As==00, 0x0030(r15)
    5710:	cf 43 2f 00 	mov.b	#0,	47(r15)	;r3 As==00, 0x002f(r15)
    5714:	ff 40 80 ff 2e 00 	mov.b	#-128,	46(r15)	;#0xff80, 0x002e(r15)
    571a:	c2 43 60 12 	mov.b	#0,	&0x1260	;r3 As==00
    571e:	c2 43 5c 12 	mov.b	#0,	&0x125c	;r3 As==00
    5722:	5f 42 62 11 	mov.b	&0x1162,r15	
    5726:	0f 5b       	add	r11,	r15	
    5728:	cf 93 00 00 	tst.b	0(r15)		;0x0000(r15)
    572c:	33 34       	jge	$+104    	;abs 0x5794
    572e:	07 93       	tst	r7		
    5730:	31 24       	jz	$+100    	;abs 0x5794
    5732:	5f 4b 02 00 	mov.b	2(r11),	r15	;0x0002(r11)
    5736:	8f 10       	swpb	r15		
    5738:	5f db 01 00 	bis.b	1(r11),	r15	;0x0001(r11)
    573c:	7f f0 07 00 	and.b	#7,	r15	;#0x0007
    5740:	1d 42 36 11 	mov	&0x1136,r13	
    5744:	6f 93       	cmp.b	#2,	r15	;r3 As==10
    5746:	1f 20       	jnz	$+64     	;abs 0x5786
    5748:	1f 42 74 11 	mov	&0x1174,r15	
    574c:	0f 93       	tst	r15		
    574e:	22 24       	jz	$+70     	;abs 0x5794
    5750:	b2 90 07 00 1c 11 	cmp	#7,	&0x111c	;#0x0007
    5756:	1e 20       	jnz	$+62     	;abs 0x5794
    5758:	df 9d 03 00 03 00 	cmp.b	3(r13),	3(r15)	;0x0003(r13), 0x0003(r15)
    575e:	1a 20       	jnz	$+54     	;abs 0x5794
    5760:	b2 f0 ef ff 86 01 	and	#-17,	&0x0186	;#0xffef
    5766:	6e 4d       	mov.b	@r13,	r14	
    5768:	df 43 2c 00 	mov.b	#1,	44(r15)	;r3 As==01, 0x002c(r15)
    576c:	0e 5d       	add	r13,	r14	
    576e:	df 4e ff ff 28 00 	mov.b	-1(r14),40(r15)	;0xffff(r14), 0x0028(r15)
    5774:	6e 4e       	mov.b	@r14,	r14	
    5776:	7e f0 7f 00 	and.b	#127,	r14	;#0x007f
    577a:	cf 4e 29 00 	mov.b	r14,	41(r15)	;0x0029(r15)
    577e:	4f 43       	clr.b	r15		
    5780:	b0 12 92 4b 	call	#0x4b92	
    5784:	07 3c       	jmp	$+16     	;abs 0x5794
    5786:	5f 93       	cmp.b	#1,	r15	;r3 As==01
    5788:	05 20       	jnz	$+12     	;abs 0x5794
    578a:	7f 40 0a 00 	mov.b	#10,	r15	;#0x000a
    578e:	b0 12 b2 49 	call	#0x49b2	
    5792:	3f 3c       	jmp	$+128    	;abs 0x5812
    5794:	b0 12 9a 54 	call	#0x549a	
    5798:	3c 3c       	jmp	$+122    	;abs 0x5812
    579a:	c2 43 6e 11 	mov.b	#0,	&0x116e	;r3 As==00
    579e:	b0 12 ac 4b 	call	#0x4bac	
    57a2:	6f 42       	mov.b	#4,	r15	;r2 As==10
    57a4:	b0 12 ba 4b 	call	#0x4bba	
    57a8:	34 3c       	jmp	$+106    	;abs 0x5812
    57aa:	7f 90 3e 00 	cmp.b	#62,	r15	;#0x003e
    57ae:	31 20       	jnz	$+100    	;abs 0x5812
    57b0:	b0 12 ac 4b 	call	#0x4bac	
    57b4:	b2 92 1c 11 	cmp	#8,	&0x111c	;r2 As==11
    57b8:	11 20       	jnz	$+36     	;abs 0x57dc
    57ba:	b0 12 a2 49 	call	#0x49a2	
    57be:	7f 40 09 00 	mov.b	#9,	r15	;#0x0009
    57c2:	b0 12 52 49 	call	#0x4952	
    57c6:	b0 12 ac 4b 	call	#0x4bac	
    57ca:	b0 12 76 4c 	call	#0x4c76	
    57ce:	92 43 1c 11 	mov	#1,	&0x111c	;r3 As==01
    57d2:	7f 40 03 00 	mov.b	#3,	r15	;#0x0003
    57d6:	b0 12 78 4b 	call	#0x4b78	
    57da:	1b 3c       	jmp	$+56     	;abs 0x5812
    57dc:	c2 93 6e 12 	tst.b	&0x126e	
    57e0:	05 20       	jnz	$+12     	;abs 0x57ec
    57e2:	a2 42 1c 11 	mov	#4,	&0x111c	;r2 As==10
    57e6:	b0 12 22 4e 	call	#0x4e22	
    57ea:	13 3c       	jmp	$+40     	;abs 0x5812
    57ec:	b0 12 76 4c 	call	#0x4c76	
    57f0:	b2 40 03 00 1c 11 	mov	#3,	&0x111c	;#0x0003
    57f6:	b0 12 0e 45 	call	#0x450e	
    57fa:	3e 40 36 01 	mov	#310,	r14	;#0x0136
    57fe:	b0 12 a0 6a 	call	#0x6aa0	
    5802:	0e 4f       	mov	r15,	r14	
    5804:	3e 50 0b 00 	add	#11,	r14	;#0x000b
    5808:	82 4e 4e 11 	mov	r14,	&0x114e	
    580c:	0f 43       	clr	r15		
    580e:	b0 12 b0 4d 	call	#0x4db0	
    5812:	37 41       	pop	r7		
    5814:	38 41       	pop	r8		
    5816:	39 41       	pop	r9		
    5818:	3a 41       	pop	r10		
    581a:	3b 41       	pop	r11		
    581c:	30 41       	ret			

0000581e <CC2420TinyosNetworkP__ActiveSend__send.isra.115>:
    581e:	0b 12       	push	r11		
    5820:	0a 12       	push	r10		
    5822:	0b 4f       	mov	r15,	r11	
    5824:	b0 12 a2 48 	call	#0x48a2	
    5828:	4a 4f       	mov.b	r15,	r10	
    582a:	0f 4b       	mov	r11,	r15	
    582c:	b0 12 26 46 	call	#0x4626	
    5830:	ff 40 3f 00 00 00 	mov.b	#63,	0(r15)	;#0x003f, 0x0000(r15)
    5836:	4f 4a       	mov.b	r10,	r15	
    5838:	b0 12 b4 48 	call	#0x48b4	
    583c:	82 43 66 12 	mov	#0,	&0x1266	;r3 As==00
    5840:	6f 43       	mov.b	#2,	r15	;r3 As==10
    5842:	b0 12 32 53 	call	#0x5332	
    5846:	4f 93       	tst.b	r15		
    5848:	6e 20       	jnz	$+222    	;abs 0x5926
    584a:	5f 42 03 12 	mov.b	&0x1203,r15	
    584e:	4e 4f       	mov.b	r15,	r14	
    5850:	5e 53       	inc.b	r14		
    5852:	c2 4e 03 12 	mov.b	r14,	&0x1203	
    5856:	cb 4f 03 00 	mov.b	r15,	3(r11)	;0x0003(r11)
    585a:	b0 12 a2 48 	call	#0x48a2	
    585e:	4a 4f       	mov.b	r15,	r10	
    5860:	6f 43       	mov.b	#2,	r15	;r3 As==10
    5862:	b0 12 82 49 	call	#0x4982	
    5866:	4f 93       	tst.b	r15		
    5868:	0b 20       	jnz	$+24     	;abs 0x5880
    586a:	4f 4a       	mov.b	r10,	r15	
    586c:	b0 12 b4 48 	call	#0x48b4	
    5870:	b0 12 a2 48 	call	#0x48a2	
    5874:	c2 43 b6 11 	mov.b	#0,	&0x11b6	;r3 As==00
    5878:	b0 12 b4 48 	call	#0x48b4	
    587c:	5f 43       	mov.b	#1,	r15	;r3 As==01
    587e:	55 3c       	jmp	$+172    	;abs 0x592a
    5880:	6f 42       	mov.b	#4,	r15	;r2 As==10
    5882:	b0 12 6a 51 	call	#0x516a	
    5886:	82 4b 94 11 	mov	r11,	&0x1194	
    588a:	4f 4a       	mov.b	r10,	r15	
    588c:	b0 12 b4 48 	call	#0x48b4	
    5890:	5f 4b 02 00 	mov.b	2(r11),	r15	;0x0002(r11)
    5894:	8f 10       	swpb	r15		
    5896:	5e 4b 01 00 	mov.b	1(r11),	r14	;0x0001(r11)
    589a:	0f de       	bis	r14,	r15	
    589c:	3f f0 20 cc 	and	#-13280,r15	;#0xcc20
    58a0:	4e 4f       	mov.b	r15,	r14	
    58a2:	3e d0 41 00 	bis	#65,	r14	;#0x0041
    58a6:	8f 10       	swpb	r15		
    58a8:	4f 4f       	mov.b	r15,	r15	
    58aa:	8f 10       	swpb	r15		
    58ac:	0e df       	bis	r15,	r14	
    58ae:	cb 4e 01 00 	mov.b	r14,	1(r11)	;0x0001(r11)
    58b2:	8e 10       	swpb	r14		
    58b4:	cb 4e 02 00 	mov.b	r14,	2(r11)	;0x0002(r11)
    58b8:	cb 43 2c 00 	mov.b	#0,	44(r11)	;r3 As==00, 0x002c(r11)
    58bc:	cb 43 28 00 	mov.b	#0,	40(r11)	;r3 As==00, 0x0028(r11)
    58c0:	cb 43 29 00 	mov.b	#0,	41(r11)	;r3 As==00, 0x0029(r11)
    58c4:	cb 43 31 00 	mov.b	#0,	49(r11)	;r3 As==00, 0x0031(r11)
    58c8:	cb 43 30 00 	mov.b	#0,	48(r11)	;r3 As==00, 0x0030(r11)
    58cc:	cb 43 2f 00 	mov.b	#0,	47(r11)	;r3 As==00, 0x002f(r11)
    58d0:	fb 40 80 ff 2e 00 	mov.b	#-128,	46(r11)	;#0xff80, 0x002e(r11)
    58d6:	d2 43 b8 11 	mov.b	#1,	&0x11b8	;r3 As==01
    58da:	1b 42 94 11 	mov	&0x1194,r11	
    58de:	b0 12 a2 48 	call	#0x48a2	
    58e2:	1e 42 1c 11 	mov	&0x111c,r14	
    58e6:	3e 92       	cmp	#8,	r14	;r2 As==11
    58e8:	02 24       	jz	$+6      	;abs 0x58ee
    58ea:	1e 93       	cmp	#1,	r14	;r3 As==01
    58ec:	03 24       	jz	$+8      	;abs 0x58f4
    58ee:	b0 12 b4 48 	call	#0x48b4	
    58f2:	14 3c       	jmp	$+42     	;abs 0x591c
    58f4:	a2 43 1c 11 	mov	#2,	&0x111c	;r3 As==10
    58f8:	d2 43 6e 12 	mov.b	#1,	&0x126e	;r3 As==01
    58fc:	82 4b 74 11 	mov	r11,	&0x1174	
    5900:	c2 43 3c 11 	mov.b	#0,	&0x113c	;r3 As==00
    5904:	b0 12 b4 48 	call	#0x48b4	
    5908:	7f 40 03 00 	mov.b	#3,	r15	;#0x0003
    590c:	b0 12 fa 53 	call	#0x53fa	
    5910:	4f 93       	tst.b	r15		
    5912:	06 24       	jz	$+14     	;abs 0x5920
    5914:	7f 40 03 00 	mov.b	#3,	r15	;#0x0003
    5918:	b0 12 5a 53 	call	#0x535a	
    591c:	4f 43       	clr.b	r15		
    591e:	05 3c       	jmp	$+12     	;abs 0x592a
    5920:	b0 12 7e 51 	call	#0x517e	
    5924:	fb 3f       	jmp	$-8      	;abs 0x591c
    5926:	7f 40 05 00 	mov.b	#5,	r15	;#0x0005
    592a:	3a 41       	pop	r10		
    592c:	3b 41       	pop	r11		
    592e:	30 41       	ret			

00005930 <CC2420ActiveMessageP__AMSend__send>:
    5930:	0b 12       	push	r11		
    5932:	0a 12       	push	r10		
    5934:	09 12       	push	r9		
    5936:	0b 4d       	mov	r13,	r11	
    5938:	4a 4c       	mov.b	r12,	r10	
    593a:	7c 90 1d 00 	cmp.b	#29,	r12	;#0x001d
    593e:	4f 2c       	jc	$+160    	;abs 0x59de
    5940:	cd 4f 0b 00 	mov.b	r15,	11(r13)	;0x000b(r13)
    5944:	cd 4e 06 00 	mov.b	r14,	6(r13)	;0x0006(r13)
    5948:	8e 10       	swpb	r14		
    594a:	cd 4e 07 00 	mov.b	r14,	7(r13)	;0x0007(r13)
    594e:	b0 12 a2 48 	call	#0x48a2	
    5952:	19 42 70 11 	mov	&0x1170,r9	
    5956:	b0 12 b4 48 	call	#0x48b4	
    595a:	cb 49 04 00 	mov.b	r9,	4(r11)	;0x0004(r11)
    595e:	89 10       	swpb	r9		
    5960:	cb 49 05 00 	mov.b	r9,	5(r11)	;0x0005(r11)
    5964:	b0 12 a2 48 	call	#0x48a2	
    5968:	19 42 06 11 	mov	&0x1106,r9	
    596c:	b0 12 b4 48 	call	#0x48b4	
    5970:	cb 49 08 00 	mov.b	r9,	8(r11)	;0x0008(r11)
    5974:	89 10       	swpb	r9		
    5976:	cb 49 09 00 	mov.b	r9,	9(r11)	;0x0009(r11)
    597a:	5f 4b 01 00 	mov.b	1(r11),	r15	;0x0001(r11)
    597e:	3f d0 40 88 	bis	#-30656,r15	;#0x8840
    5982:	5e 4b 02 00 	mov.b	2(r11),	r14	;0x0002(r11)
    5986:	8e 10       	swpb	r14		
    5988:	0f de       	bis	r14,	r15	
    598a:	cb 4f 01 00 	mov.b	r15,	1(r11)	;0x0001(r11)
    598e:	8f 10       	swpb	r15		
    5990:	cb 4f 02 00 	mov.b	r15,	2(r11)	;0x0002(r11)
    5994:	4f 4a       	mov.b	r10,	r15	
    5996:	7f 50 0d 00 	add.b	#13,	r15	;#0x000d
    599a:	cb 4f 00 00 	mov.b	r15,	0(r11)	;0x0000(r11)
    599e:	c2 93 03 11 	tst.b	&0x1103	
    59a2:	08 24       	jz	$+18     	;abs 0x59b4
    59a4:	c2 43 03 11 	mov.b	#0,	&0x1103	;r3 As==00
    59a8:	0f 4b       	mov	r11,	r15	
    59aa:	b0 12 1e 58 	call	#0x581e	
    59ae:	4f 93       	tst.b	r15		
    59b0:	0f 20       	jnz	$+32     	;abs 0x59d0
    59b2:	19 3c       	jmp	$+52     	;abs 0x59e6
    59b4:	c2 4a 92 11 	mov.b	r10,	&0x1192	
    59b8:	c2 43 93 11 	mov.b	#0,	&0x1193	;r3 As==00
    59bc:	82 4b 16 11 	mov	r11,	&0x1116	
    59c0:	7f 40 0b 00 	mov.b	#11,	r15	;#0x000b
    59c4:	b0 12 b2 49 	call	#0x49b2	
    59c8:	c2 93 03 11 	tst.b	&0x1103	
    59cc:	0a 24       	jz	$+22     	;abs 0x59e2
    59ce:	03 3c       	jmp	$+8      	;abs 0x59d6
    59d0:	f2 43 03 11 	mov.b	#-1,	&0x1103	;r3 As==11
    59d4:	08 3c       	jmp	$+18     	;abs 0x59e6
    59d6:	c2 43 7a 11 	mov.b	#0,	&0x117a	;r3 As==00
    59da:	4f 43       	clr.b	r15		
    59dc:	04 3c       	jmp	$+10     	;abs 0x59e6
    59de:	6f 43       	mov.b	#2,	r15	;r3 As==10
    59e0:	02 3c       	jmp	$+6      	;abs 0x59e6
    59e2:	7f 40 09 00 	mov.b	#9,	r15	;#0x0009
    59e6:	39 41       	pop	r9		
    59e8:	3a 41       	pop	r10		
    59ea:	3b 41       	pop	r11		
    59ec:	30 41       	ret			

000059ee <VirtualizeTimerC__0__fireTimers>:
    59ee:	0b 12       	push	r11		
    59f0:	0a 12       	push	r10		
    59f2:	09 12       	push	r9		
    59f4:	08 12       	push	r8		
    59f6:	07 12       	push	r7		
    59f8:	06 12       	push	r6		
    59fa:	37 40 9c 11 	mov	#4508,	r7	;#0x119c
    59fe:	56 42 a4 11 	mov.b	&0x11a4,r6	
    5a02:	66 b3       	bit.b	#2,	r6	;r3 As==10
    5a04:	12 24       	jz	$+38     	;abs 0x5a2a
    5a06:	1a 42 9c 11 	mov	&0x119c,r10	
    5a0a:	1b 42 9e 11 	mov	&0x119e,r11	
    5a0e:	1c 42 a0 11 	mov	&0x11a0,r12	
    5a12:	1d 42 a2 11 	mov	&0x11a2,r13	
    5a16:	08 4e       	mov	r14,	r8	
    5a18:	09 4f       	mov	r15,	r9	
    5a1a:	08 8a       	sub	r10,	r8	
    5a1c:	09 7b       	subc	r11,	r9	
    5a1e:	09 9d       	cmp	r13,	r9	
    5a20:	04 28       	jnc	$+10     	;abs 0x5a2a
    5a22:	0d 99       	cmp	r9,	r13	
    5a24:	19 28       	jnc	$+52     	;abs 0x5a58
    5a26:	08 9c       	cmp	r12,	r8	
    5a28:	17 2c       	jc	$+48     	;abs 0x5a58
    5a2a:	37 40 a6 11 	mov	#4518,	r7	;#0x11a6
    5a2e:	56 42 ae 11 	mov.b	&0x11ae,r6	
    5a32:	66 b3       	bit.b	#2,	r6	;r3 As==10
    5a34:	59 24       	jz	$+180    	;abs 0x5ae8
    5a36:	1a 42 a6 11 	mov	&0x11a6,r10	
    5a3a:	1b 42 a8 11 	mov	&0x11a8,r11	
    5a3e:	1c 42 aa 11 	mov	&0x11aa,r12	
    5a42:	1d 42 ac 11 	mov	&0x11ac,r13	
    5a46:	0e 8a       	sub	r10,	r14	
    5a48:	0f 7b       	subc	r11,	r15	
    5a4a:	0f 9d       	cmp	r13,	r15	
    5a4c:	4d 28       	jnc	$+156    	;abs 0x5ae8
    5a4e:	02 20       	jnz	$+6      	;abs 0x5a54
    5a50:	0e 9c       	cmp	r12,	r14	
    5a52:	4a 28       	jnc	$+150    	;abs 0x5ae8
    5a54:	1f 43       	mov	#1,	r15	;r3 As==01
    5a56:	01 3c       	jmp	$+4      	;abs 0x5a5a
    5a58:	0f 43       	clr	r15		
    5a5a:	56 f3       	and.b	#1,	r6	;r3 As==01
    5a5c:	04 24       	jz	$+10     	;abs 0x5a66
    5a5e:	f7 f0 fd ff 08 00 	and.b	#-3,	8(r7)	;#0xfffd, 0x0008(r7)
    5a64:	08 3c       	jmp	$+18     	;abs 0x5a76
    5a66:	08 4a       	mov	r10,	r8	
    5a68:	09 4b       	mov	r11,	r9	
    5a6a:	08 5c       	add	r12,	r8	
    5a6c:	09 6d       	addc	r13,	r9	
    5a6e:	87 48 00 00 	mov	r8,	0(r7)	;0x0000(r7)
    5a72:	87 49 02 00 	mov	r9,	2(r7)	;0x0002(r7)
    5a76:	4f 93       	tst.b	r15		
    5a78:	37 20       	jnz	$+112    	;abs 0x5ae8
    5a7a:	c2 93 32 11 	tst.b	&0x1132	
    5a7e:	34 20       	jnz	$+106    	;abs 0x5ae8
    5a80:	1f 42 14 11 	mov	&0x1114,r15	
    5a84:	c2 4f d1 11 	mov.b	r15,	&0x11d1	
    5a88:	8f 10       	swpb	r15		
    5a8a:	c2 4f d0 11 	mov.b	r15,	&0x11d0	
    5a8e:	1f 42 0c 11 	mov	&0x110c,r15	
    5a92:	1f 53       	inc	r15		
    5a94:	c2 4f d3 11 	mov.b	r15,	&0x11d3	
    5a98:	8f 10       	swpb	r15		
    5a9a:	c2 4f d2 11 	mov.b	r15,	&0x11d2	
    5a9e:	f2 40 0c 00 ca 11 	mov.b	#12,	&0x11ca	;#0x000c
    5aa4:	c2 43 cb 11 	mov.b	#0,	&0x11cb	;r3 As==00
    5aa8:	f2 40 06 00 cf 11 	mov.b	#6,	&0x11cf	;#0x0006
    5aae:	82 93 96 11 	tst	&0x1196	
    5ab2:	1a 20       	jnz	$+54     	;abs 0x5ae8
    5ab4:	b2 40 c4 11 96 11 	mov	#4548,	&0x1196	;#0x11c4
    5aba:	f2 40 11 00 c4 11 	mov.b	#17,	&0x11c4	;#0x0011
    5ac0:	c2 93 00 11 	tst.b	&0x1100	
    5ac4:	1b 24       	jz	$+56     	;abs 0x5afc
    5ac6:	c2 43 00 11 	mov.b	#0,	&0x1100	;r3 As==00
    5aca:	6c 42       	mov.b	#4,	r12	;r2 As==10
    5acc:	3d 40 c4 11 	mov	#4548,	r13	;#0x11c4
    5ad0:	3e 40 0c 00 	mov	#12,	r14	;#0x000c
    5ad4:	7f 40 06 00 	mov.b	#6,	r15	;#0x0006
    5ad8:	b0 12 30 59 	call	#0x5930	
    5adc:	4f 93       	tst.b	r15		
    5ade:	0e 24       	jz	$+30     	;abs 0x5afc
    5ae0:	d2 43 00 11 	mov.b	#1,	&0x1100	;r3 As==01
    5ae4:	82 43 96 11 	mov	#0,	&0x1196	;r3 As==00
    5ae8:	5f 43       	mov.b	#1,	r15	;r3 As==01
    5aea:	b0 12 b2 49 	call	#0x49b2	
    5aee:	36 41       	pop	r6		
    5af0:	37 41       	pop	r7		
    5af2:	38 41       	pop	r8		
    5af4:	39 41       	pop	r9		
    5af6:	3a 41       	pop	r10		
    5af8:	3b 41       	pop	r11		
    5afa:	30 41       	ret			
    5afc:	d2 43 32 11 	mov.b	#1,	&0x1132	;r3 As==01
    5b00:	f3 3f       	jmp	$-24     	;abs 0x5ae8

00005b02 <AMQueueImplP__0__sendDone.isra.117>:
    5b02:	0b 12       	push	r11		
    5b04:	0a 12       	push	r10		
    5b06:	09 12       	push	r9		
    5b08:	08 12       	push	r8		
    5b0a:	49 4f       	mov.b	r15,	r9	
    5b0c:	08 4e       	mov	r14,	r8	
    5b0e:	4d 4f       	mov.b	r15,	r13	
    5b10:	0d 5d       	rla	r13		
    5b12:	8d 43 96 11 	mov	#0,	4502(r13);r3 As==00, 0x1196(r13)
    5b16:	c2 43 00 11 	mov.b	#0,	&0x1100	;r3 As==00
    5b1a:	1d 42 96 11 	mov	&0x1196,r13	
    5b1e:	0d 93       	tst	r13		
    5b20:	04 24       	jz	$+10     	;abs 0x5b2a
    5b22:	5f 42 64 12 	mov.b	&0x1264,r15	
    5b26:	1f f3       	and	#1,	r15	;r3 As==01
    5b28:	02 24       	jz	$+6      	;abs 0x5b2e
    5b2a:	d2 43 00 11 	mov.b	#1,	&0x1100	;r3 As==01
    5b2e:	c2 93 00 11 	tst.b	&0x1100	
    5b32:	14 20       	jnz	$+42     	;abs 0x5b5c
    5b34:	5b 4d 07 00 	mov.b	7(r13),	r11	;0x0007(r13)
    5b38:	8b 10       	swpb	r11		
    5b3a:	5a 4d 06 00 	mov.b	6(r13),	r10	;0x0006(r13)
    5b3e:	6c 4d       	mov.b	@r13,	r12	
    5b40:	7c 50 f3 ff 	add.b	#-13,	r12	;#0xfff3
    5b44:	0e 4b       	mov	r11,	r14	
    5b46:	0e da       	bis	r10,	r14	
    5b48:	5f 4d 0b 00 	mov.b	11(r13),r15	;0x000b(r13)
    5b4c:	b0 12 30 59 	call	#0x5930	
    5b50:	4f 93       	tst.b	r15		
    5b52:	04 24       	jz	$+10     	;abs 0x5b5c
    5b54:	7f 40 0d 00 	mov.b	#13,	r15	;#0x000d
    5b58:	b0 12 b2 49 	call	#0x49b2	
    5b5c:	49 93       	tst.b	r9		
    5b5e:	05 20       	jnz	$+12     	;abs 0x5b6a
    5b60:	38 90 c4 11 	cmp	#4548,	r8	;#0x11c4
    5b64:	02 20       	jnz	$+6      	;abs 0x5b6a
    5b66:	c2 43 32 11 	mov.b	#0,	&0x1132	;r3 As==00
    5b6a:	38 41       	pop	r8		
    5b6c:	39 41       	pop	r9		
    5b6e:	3a 41       	pop	r10		
    5b70:	3b 41       	pop	r11		
    5b72:	30 41       	ret			

00005b74 <CC2420ActiveMessageP__AMSend__sendDone.isra.119>:
    5b74:	c2 93 00 11 	tst.b	&0x1100	
    5b78:	07 20       	jnz	$+16     	;abs 0x5b88
    5b7a:	1e 42 96 11 	mov	&0x1196,r14	
    5b7e:	0e 9f       	cmp	r15,	r14	
    5b80:	03 20       	jnz	$+8      	;abs 0x5b88
    5b82:	4f 43       	clr.b	r15		
    5b84:	b0 12 02 5b 	call	#0x5b02	
    5b88:	30 41       	ret			

00005b8a <SchedulerBasicP__TaskBasic__runTask>:
    5b8a:	0b 12       	push	r11		
    5b8c:	0a 12       	push	r10		
    5b8e:	09 12       	push	r9		
    5b90:	08 12       	push	r8		
    5b92:	07 12       	push	r7		
    5b94:	06 12       	push	r6		
    5b96:	31 50 f6 ff 	add	#-10,	r1	;#0xfff6
    5b9a:	7f 90 0e 00 	cmp.b	#14,	r15	;#0x000e
    5b9e:	02 28       	jnc	$+6      	;abs 0x5ba4
    5ba0:	30 40 46 63 	br	#0x6346	
    5ba4:	4f 4f       	mov.b	r15,	r15	
    5ba6:	0f 5f       	rla	r15		
    5ba8:	10 4f 2e 6c 	br	27694(r15)	;0x6c2e(r15)
    5bac:	c2 93 63 11 	tst.b	&0x1163	
    5bb0:	28 20       	jnz	$+82     	;abs 0x5c02
    5bb2:	1a 42 04 12 	mov	&0x1204,r10	
    5bb6:	1b 42 06 12 	mov	&0x1206,r11	
    5bba:	b0 12 a2 48 	call	#0x48a2	
    5bbe:	18 42 80 11 	mov	&0x1180,r8	
    5bc2:	19 42 82 11 	mov	&0x1182,r9	
    5bc6:	18 52 86 11 	add	&0x1186,r8	
    5bca:	19 62 88 11 	addc	&0x1188,r9	
    5bce:	b0 12 b4 48 	call	#0x48b4	
    5bd2:	82 4a 04 12 	mov	r10,	&0x1204	
    5bd6:	82 4b 06 12 	mov	r11,	&0x1206	
    5bda:	c2 43 63 11 	mov.b	#0,	&0x1163	;r3 As==00
    5bde:	b0 12 a2 48 	call	#0x48a2	
    5be2:	82 48 86 11 	mov	r8,	&0x1186	
    5be6:	82 49 88 11 	mov	r9,	&0x1188	
    5bea:	82 4a 80 11 	mov	r10,	&0x1180	
    5bee:	82 4b 82 11 	mov	r11,	&0x1182	
    5bf2:	81 4f 08 00 	mov	r15,	8(r1)	;0x0008(r1)
    5bf6:	b0 12 74 50 	call	#0x5074	
    5bfa:	1f 41 08 00 	mov	8(r1),	r15	;0x0008(r1)
    5bfe:	b0 12 b4 48 	call	#0x48b4	
    5c02:	b0 12 f8 4f 	call	#0x4ff8	
    5c06:	4a 3c       	jmp	$+150    	;abs 0x5c9c
    5c08:	b0 12 f8 4f 	call	#0x4ff8	
    5c0c:	08 4e       	mov	r14,	r8	
    5c0e:	09 4f       	mov	r15,	r9	
    5c10:	b2 f0 ef ff 82 01 	and	#-17,	&0x0182	;#0xffef
    5c16:	e2 b3 a4 11 	bit.b	#2,	&0x11a4	;r3 As==10
    5c1a:	15 24       	jz	$+44     	;abs 0x5c46
    5c1c:	0a 4e       	mov	r14,	r10	
    5c1e:	0b 4f       	mov	r15,	r11	
    5c20:	1a 82 9c 11 	sub	&0x119c,r10	
    5c24:	1b 72 9e 11 	subc	&0x119e,r11	
    5c28:	16 42 a0 11 	mov	&0x11a0,r6	
    5c2c:	17 42 a2 11 	mov	&0x11a2,r7	
    5c30:	06 8a       	sub	r10,	r6	
    5c32:	07 7b       	subc	r11,	r7	
    5c34:	0a 46       	mov	r6,	r10	
    5c36:	0b 47       	mov	r7,	r11	
    5c38:	36 93       	cmp	#-1,	r6	;r3 As==11
    5c3a:	0a 20       	jnz	$+22     	;abs 0x5c50
    5c3c:	3b 90 ff 7f 	cmp	#32767,	r11	;#0x7fff
    5c40:	07 20       	jnz	$+16     	;abs 0x5c50
    5c42:	4d 43       	clr.b	r13		
    5c44:	06 3c       	jmp	$+14     	;abs 0x5c52
    5c46:	4d 43       	clr.b	r13		
    5c48:	3a 43       	mov	#-1,	r10	;r3 As==11
    5c4a:	3b 40 ff 7f 	mov	#32767,	r11	;#0x7fff
    5c4e:	01 3c       	jmp	$+4      	;abs 0x5c52
    5c50:	5d 43       	mov.b	#1,	r13	;r3 As==01
    5c52:	e2 b3 ae 11 	bit.b	#2,	&0x11ae	;r3 As==10
    5c56:	16 24       	jz	$+46     	;abs 0x5c84
    5c58:	0e 48       	mov	r8,	r14	
    5c5a:	0f 49       	mov	r9,	r15	
    5c5c:	1e 82 a6 11 	sub	&0x11a6,r14	
    5c60:	1f 72 a8 11 	subc	&0x11a8,r15	
    5c64:	16 42 aa 11 	mov	&0x11aa,r6	
    5c68:	17 42 ac 11 	mov	&0x11ac,r7	
    5c6c:	06 8e       	sub	r14,	r6	
    5c6e:	07 7f       	subc	r15,	r7	
    5c70:	0e 46       	mov	r6,	r14	
    5c72:	0f 47       	mov	r7,	r15	
    5c74:	0f 9b       	cmp	r11,	r15	
    5c76:	03 38       	jl	$+8      	;abs 0x5c7e
    5c78:	05 20       	jnz	$+12     	;abs 0x5c84
    5c7a:	06 9a       	cmp	r10,	r6	
    5c7c:	03 2c       	jc	$+8      	;abs 0x5c84
    5c7e:	0a 4e       	mov	r14,	r10	
    5c80:	0b 4f       	mov	r15,	r11	
    5c82:	04 3c       	jmp	$+10     	;abs 0x5c8c
    5c84:	4d 93       	tst.b	r13		
    5c86:	02 20       	jnz	$+6      	;abs 0x5c8c
    5c88:	30 40 46 63 	br	#0x6346	
    5c8c:	0b 93       	tst	r11		
    5c8e:	04 38       	jl	$+10     	;abs 0x5c98
    5c90:	1b 93       	cmp	#1,	r11	;r3 As==01
    5c92:	08 34       	jge	$+18     	;abs 0x5ca4
    5c94:	1a 93       	cmp	#1,	r10	;r3 As==01
    5c96:	06 2c       	jc	$+14     	;abs 0x5ca4
    5c98:	0e 48       	mov	r8,	r14	
    5c9a:	0f 49       	mov	r9,	r15	
    5c9c:	b0 12 ee 59 	call	#0x59ee	
    5ca0:	30 40 46 63 	br	#0x6346	
    5ca4:	82 4a 04 12 	mov	r10,	&0x1204	
    5ca8:	82 4b 06 12 	mov	r11,	&0x1206	
    5cac:	d2 43 63 11 	mov.b	#1,	&0x1163	;r3 As==01
    5cb0:	b0 12 a2 48 	call	#0x48a2	
    5cb4:	82 48 86 11 	mov	r8,	&0x1186	
    5cb8:	82 49 88 11 	mov	r9,	&0x1188	
    5cbc:	82 4a 80 11 	mov	r10,	&0x1180	
    5cc0:	82 4b 82 11 	mov	r11,	&0x1182	
    5cc4:	81 4f 08 00 	mov	r15,	8(r1)	;0x0008(r1)
    5cc8:	b0 12 74 50 	call	#0x5074	
    5ccc:	30 40 f8 5f 	br	#0x5ff8	
    5cd0:	b0 12 a2 48 	call	#0x48a2	
    5cd4:	4b 4f       	mov.b	r15,	r11	
    5cd6:	5f 43       	mov.b	#1,	r15	;r3 As==01
    5cd8:	b0 12 cc 45 	call	#0x45cc	
    5cdc:	92 43 1c 11 	mov	#1,	&0x111c	;r3 As==01
    5ce0:	c2 43 1a 11 	mov.b	#0,	&0x111a	;r3 As==00
    5ce4:	c2 43 51 11 	mov.b	#0,	&0x1151	;r3 As==00
    5ce8:	c2 43 64 11 	mov.b	#0,	&0x1164	;r3 As==00
    5cec:	4f 4b       	mov.b	r11,	r15	
    5cee:	b0 12 b4 48 	call	#0x48b4	
    5cf2:	b0 12 a2 48 	call	#0x48a2	
    5cf6:	81 4f 08 00 	mov	r15,	8(r1)	;0x0008(r1)
    5cfa:	b0 12 6c 46 	call	#0x466c	
    5cfe:	92 43 60 11 	mov	#1,	&0x1160	;r3 As==01
    5d02:	c2 43 6e 11 	mov.b	#0,	&0x116e	;r3 As==00
    5d06:	f2 f0 fe ff 25 00 	and.b	#-2,	&0x0025	;#0xfffe
    5d0c:	f2 f0 fe ff 23 00 	and.b	#-2,	&0x0023	;#0xfffe
    5d12:	d2 d3 24 00 	bis.b	#1,	&0x0024	;r3 As==01
    5d16:	d2 d3 25 00 	bis.b	#1,	&0x0025	;r3 As==01
    5d1a:	1f 41 08 00 	mov	8(r1),	r15	;0x0008(r1)
    5d1e:	b0 12 b4 48 	call	#0x48b4	
    5d22:	b0 12 a2 48 	call	#0x48a2	
    5d26:	4b 4f       	mov.b	r15,	r11	
    5d28:	a2 92 2e 11 	cmp	#4,	&0x112e	;r2 As==10
    5d2c:	05 20       	jnz	$+12     	;abs 0x5d38
    5d2e:	7f 40 03 00 	mov.b	#3,	r15	;#0x0003
    5d32:	b0 12 52 49 	call	#0x4952	
    5d36:	4f 4b       	mov.b	r11,	r15	
    5d38:	b0 12 b4 48 	call	#0x48b4	
    5d3c:	b0 12 a2 48 	call	#0x48a2	
    5d40:	4b 4f       	mov.b	r15,	r11	
    5d42:	b0 12 ac 4b 	call	#0x4bac	
    5d46:	4f 43       	clr.b	r15		
    5d48:	b0 12 ba 4b 	call	#0x4bba	
    5d4c:	4f 4b       	mov.b	r11,	r15	
    5d4e:	b0 12 b4 48 	call	#0x48b4	
    5d52:	6f 43       	mov.b	#2,	r15	;r3 As==10
    5d54:	b0 12 6a 51 	call	#0x516a	
    5d58:	b0 12 f8 4f 	call	#0x4ff8	
    5d5c:	82 4e 9c 11 	mov	r14,	&0x119c	
    5d60:	82 4f 9e 11 	mov	r15,	&0x119e	
    5d64:	b2 40 e8 03 a0 11 	mov	#1000,	&0x11a0	;#0x03e8
    5d6a:	82 43 a2 11 	mov	#0,	&0x11a2	;r3 As==00
    5d6e:	5f 42 a4 11 	mov.b	&0x11a4,r15	
    5d72:	7f f0 fe ff 	and.b	#-2,	r15	;#0xfffe
    5d76:	6f d3       	bis.b	#2,	r15	;r3 As==10
    5d78:	c2 4f a4 11 	mov.b	r15,	&0x11a4	
    5d7c:	5f 43       	mov.b	#1,	r15	;r3 As==01
    5d7e:	df 3c       	jmp	$+448    	;abs 0x5f3e
    5d80:	4f 43       	clr.b	r15		
    5d82:	b0 12 6a 51 	call	#0x516a	
    5d86:	30 40 46 63 	br	#0x6346	
    5d8a:	b0 12 a2 48 	call	#0x48a2	
    5d8e:	b0 12 b4 48 	call	#0x48b4	
    5d92:	7f 40 03 00 	mov.b	#3,	r15	;#0x0003
    5d96:	b0 12 82 49 	call	#0x4982	
    5d9a:	4f 93       	tst.b	r15		
    5d9c:	3d 24       	jz	$+124    	;abs 0x5e18
    5d9e:	b0 12 a2 48 	call	#0x48a2	
    5da2:	4b 4f       	mov.b	r15,	r11	
    5da4:	82 43 1c 11 	mov	#0,	&0x111c	;r3 As==00
    5da8:	b2 f0 ef ff 86 01 	and	#-17,	&0x0186	;#0xffef
    5dae:	b2 f0 ef ff 84 01 	and	#-17,	&0x0184	;#0xffef
    5db4:	f2 f0 fd ff 1f 00 	and.b	#-3,	&0x001f	;#0xfffd
    5dba:	7f 40 03 00 	mov.b	#3,	r15	;#0x0003
    5dbe:	b0 12 ba 4b 	call	#0x4bba	
    5dc2:	b0 12 ac 4b 	call	#0x4bac	
    5dc6:	4f 4b       	mov.b	r11,	r15	
    5dc8:	b0 12 b4 48 	call	#0x48b4	
    5dcc:	b0 12 a2 48 	call	#0x48a2	
    5dd0:	82 43 60 11 	mov	#0,	&0x1160	;r3 As==00
    5dd4:	81 4f 08 00 	mov	r15,	8(r1)	;0x0008(r1)
    5dd8:	b0 12 6c 46 	call	#0x466c	
    5ddc:	b0 12 ac 4b 	call	#0x4bac	
    5de0:	f2 f0 fe ff 25 00 	and.b	#-2,	&0x0025	;#0xfffe
    5de6:	f2 f0 fe ff 23 00 	and.b	#-2,	&0x0023	;#0xfffe
    5dec:	1f 41 08 00 	mov	8(r1),	r15	;0x0008(r1)
    5df0:	b0 12 b4 48 	call	#0x48b4	
    5df4:	82 43 2e 11 	mov	#0,	&0x112e	;r3 As==00
    5df8:	b0 12 0e 52 	call	#0x520e	
    5dfc:	b0 12 a2 48 	call	#0x48a2	
    5e00:	f2 f0 df ff 1d 00 	and.b	#-33,	&0x001d	;#0xffdf
    5e06:	b0 12 b4 48 	call	#0x48b4	
    5e0a:	b0 12 1e 52 	call	#0x521e	
    5e0e:	7f 40 03 00 	mov.b	#3,	r15	;#0x0003
    5e12:	b0 12 b2 49 	call	#0x49b2	
    5e16:	03 3c       	jmp	$+8      	;abs 0x5e1e
    5e18:	6f 43       	mov.b	#2,	r15	;r3 As==10
    5e1a:	b0 12 6a 51 	call	#0x516a	
    5e1e:	1b 42 94 11 	mov	&0x1194,r11	
    5e22:	b0 12 a2 48 	call	#0x48a2	
    5e26:	c2 43 b6 11 	mov.b	#0,	&0x11b6	;r3 As==00
    5e2a:	b0 12 b4 48 	call	#0x48b4	
    5e2e:	82 93 66 12 	tst	&0x1266	
    5e32:	02 24       	jz	$+6      	;abs 0x5e38
    5e34:	30 40 46 63 	br	#0x6346	
    5e38:	f2 43 03 11 	mov.b	#-1,	&0x1103	;r3 As==11
    5e3c:	0f 4b       	mov	r11,	r15	
    5e3e:	30 40 ea 62 	br	#0x62ea	
    5e42:	b0 12 a2 48 	call	#0x48a2	
    5e46:	4b 4f       	mov.b	r15,	r11	
    5e48:	c2 93 6c 12 	tst.b	&0x126c	
    5e4c:	0e 20       	jnz	$+30     	;abs 0x5e6a
    5e4e:	d2 43 6c 12 	mov.b	#1,	&0x126c	;r3 As==01
    5e52:	a2 92 2e 11 	cmp	#4,	&0x112e	;r2 As==10
    5e56:	04 20       	jnz	$+10     	;abs 0x5e60
    5e58:	5f 43       	mov.b	#1,	r15	;r3 As==01
    5e5a:	b0 12 5a 53 	call	#0x535a	
    5e5e:	04 3c       	jmp	$+10     	;abs 0x5e68
    5e60:	7f 40 06 00 	mov.b	#6,	r15	;#0x0006
    5e64:	b0 12 b2 49 	call	#0x49b2	
    5e68:	4f 4b       	mov.b	r11,	r15	
    5e6a:	b0 12 b4 48 	call	#0x48b4	
    5e6e:	30 40 46 63 	br	#0x6346	
    5e72:	b0 12 a2 48 	call	#0x48a2	
    5e76:	c2 43 6c 12 	mov.b	#0,	&0x126c	;r3 As==00
    5e7a:	f7 3f       	jmp	$-16     	;abs 0x5e6a
    5e7c:	b0 12 a2 48 	call	#0x48a2	
    5e80:	5b 42 0b 11 	mov.b	&0x110b,r11	
    5e84:	b0 12 b4 48 	call	#0x48b4	
    5e88:	7b 90 05 00 	cmp.b	#5,	r11	;#0x0005
    5e8c:	02 28       	jnc	$+6      	;abs 0x5e92
    5e8e:	30 40 46 63 	br	#0x6346	
    5e92:	4f 4b       	mov.b	r11,	r15	
    5e94:	0f 5f       	rla	r15		
    5e96:	10 4f 4a 6c 	br	27722(r15)	;0x6c4a(r15)
    5e9a:	b0 12 a2 49 	call	#0x49a2	
    5e9e:	b0 12 a2 48 	call	#0x48a2	
    5ea2:	4b 4f       	mov.b	r15,	r11	
    5ea4:	a2 93 2e 11 	cmp	#2,	&0x112e	;r3 As==10
    5ea8:	e0 23       	jnz	$-62     	;abs 0x5e6a
    5eaa:	b2 40 03 00 2e 11 	mov	#3,	&0x112e	;#0x0003
    5eb0:	3e 40 18 00 	mov	#24,	r14	;#0x0018
    5eb4:	7f 40 1d 00 	mov.b	#29,	r15	;#0x001d
    5eb8:	b0 12 ba 4e 	call	#0x4eba	
    5ebc:	f2 f0 ef ff 25 00 	and.b	#-17,	&0x0025	;#0xffef
    5ec2:	f2 f0 ef ff 23 00 	and.b	#-17,	&0x0023	;#0xffef
    5ec8:	f2 f0 ef ff 24 00 	and.b	#-17,	&0x0024	;#0xffef
    5ece:	f2 d0 10 00 25 00 	bis.b	#16,	&0x0025	;#0x0010
    5ed4:	5f 43       	mov.b	#1,	r15	;r3 As==01
    5ed6:	b0 12 52 49 	call	#0x4952	
    5eda:	3e 40 7f 02 	mov	#639,	r14	;#0x027f
    5ede:	7f 40 1c 00 	mov.b	#28,	r15	;#0x001c
    5ee2:	b0 12 ba 4e 	call	#0x4eba	
    5ee6:	b0 12 2e 52 	call	#0x522e	
    5eea:	b0 12 5a 52 	call	#0x525a	
    5eee:	3e 40 56 2a 	mov	#10838,	r14	;#0x2a56
    5ef2:	7f 40 17 00 	mov.b	#23,	r15	;#0x0017
    5ef6:	b0 12 ba 4e 	call	#0x4eba	
    5efa:	3e 40 ff 80 	mov	#-32513,r14	;#0x80ff
    5efe:	7f 40 15 00 	mov.b	#21,	r15	;#0x0015
    5f02:	b0 12 ba 4e 	call	#0x4eba	
    5f06:	b0 3f       	jmp	$-158    	;abs 0x5e68
    5f08:	b0 12 a2 49 	call	#0x49a2	
    5f0c:	7f 40 06 00 	mov.b	#6,	r15	;#0x0006
    5f10:	b0 12 52 49 	call	#0x4952	
    5f14:	b0 12 2e 52 	call	#0x522e	
    5f18:	b0 12 5a 52 	call	#0x525a	
    5f1c:	b0 12 76 4f 	call	#0x4f76	
    5f20:	b0 12 ac 4b 	call	#0x4bac	
    5f24:	b0 12 a2 49 	call	#0x49a2	
    5f28:	7f 40 03 00 	mov.b	#3,	r15	;#0x0003
    5f2c:	b0 12 52 49 	call	#0x4952	
    5f30:	b0 12 ac 4b 	call	#0x4bac	
    5f34:	5f 43       	mov.b	#1,	r15	;r3 As==01
    5f36:	b0 12 ba 4b 	call	#0x4bba	
    5f3a:	7f 40 06 00 	mov.b	#6,	r15	;#0x0006
    5f3e:	b0 12 b2 49 	call	#0x49b2	
    5f42:	30 40 46 63 	br	#0x6346	
    5f46:	b0 12 a2 49 	call	#0x49a2	
    5f4a:	b0 12 a2 48 	call	#0x48a2	
    5f4e:	4b 4f       	mov.b	r15,	r11	
    5f50:	b0 12 38 49 	call	#0x4938	
    5f54:	4f 93       	tst.b	r15		
    5f56:	04 24       	jz	$+10     	;abs 0x5f60
    5f58:	4f 4b       	mov.b	r11,	r15	
    5f5a:	b0 12 b4 48 	call	#0x48b4	
    5f5e:	0d 3c       	jmp	$+28     	;abs 0x5f7a
    5f60:	4f 4b       	mov.b	r11,	r15	
    5f62:	b0 12 b4 48 	call	#0x48b4	
    5f66:	7f 40 53 00 	mov.b	#83,	r15	;#0x0053
    5f6a:	b0 12 66 45 	call	#0x4566	
    5f6e:	4f 43       	clr.b	r15		
    5f70:	b0 12 66 45 	call	#0x4566	
    5f74:	4f 43       	clr.b	r15		
    5f76:	b0 12 66 45 	call	#0x4566	
    5f7a:	b0 12 ac 4b 	call	#0x4bac	
    5f7e:	6f 43       	mov.b	#2,	r15	;r3 As==10
    5f80:	b0 12 ba 4b 	call	#0x4bba	
    5f84:	30 40 46 63 	br	#0x6346	
    5f88:	b0 12 a2 48 	call	#0x48a2	
    5f8c:	5b 42 1c 11 	mov.b	&0x111c,r11	
    5f90:	b0 12 b4 48 	call	#0x48b4	
    5f94:	6b 92       	cmp.b	#4,	r11	;r2 As==10
    5f96:	08 24       	jz	$+18     	;abs 0x5fa8
    5f98:	7b 92       	cmp.b	#8,	r11	;r2 As==11
    5f9a:	0a 24       	jz	$+22     	;abs 0x5fb0
    5f9c:	6b 93       	cmp.b	#2,	r11	;r3 As==10
    5f9e:	1e 20       	jnz	$+62     	;abs 0x5fdc
    5fa0:	b0 12 7e 51 	call	#0x517e	
    5fa4:	30 40 46 63 	br	#0x6346	
    5fa8:	b0 12 22 4e 	call	#0x4e22	
    5fac:	30 40 46 63 	br	#0x6346	
    5fb0:	b0 12 a2 49 	call	#0x49a2	
    5fb4:	7f 40 09 00 	mov.b	#9,	r15	;#0x0009
    5fb8:	b0 12 52 49 	call	#0x4952	
    5fbc:	b0 12 ac 4b 	call	#0x4bac	
    5fc0:	b0 12 76 4c 	call	#0x4c76	
    5fc4:	b0 12 a2 48 	call	#0x48a2	
    5fc8:	92 43 1c 11 	mov	#1,	&0x111c	;r3 As==01
    5fcc:	b0 12 b4 48 	call	#0x48b4	
    5fd0:	7f 40 03 00 	mov.b	#3,	r15	;#0x0003
    5fd4:	b0 12 78 4b 	call	#0x4b78	
    5fd8:	30 40 46 63 	br	#0x6346	
    5fdc:	b0 12 76 4c 	call	#0x4c76	
    5fe0:	30 40 46 63 	br	#0x6346	
    5fe4:	b0 12 68 4b 	call	#0x4b68	
    5fe8:	30 40 46 63 	br	#0x6346	
    5fec:	b0 12 a2 48 	call	#0x48a2	
    5ff0:	81 4f 08 00 	mov	r15,	8(r1)	;0x0008(r1)
    5ff4:	b0 12 10 55 	call	#0x5510	
    5ff8:	1f 41 08 00 	mov	8(r1),	r15	;0x0008(r1)
    5ffc:	36 3f       	jmp	$-402    	;abs 0x5e6a
    5ffe:	b0 12 a2 48 	call	#0x48a2	
    6002:	d2 42 00 12 08 11 	mov.b	&0x1200,&0x1108	
    6008:	f2 40 03 00 2a 11 	mov.b	#3,	&0x112a	;#0x0003
    600e:	b0 12 b4 48 	call	#0x48b4	
    6012:	c2 93 08 11 	tst.b	&0x1108	
    6016:	02 20       	jnz	$+6      	;abs 0x601c
    6018:	b0 12 ac 52 	call	#0x52ac	
    601c:	c2 93 08 11 	tst.b	&0x1108	
    6020:	02 24       	jz	$+6      	;abs 0x6026
    6022:	30 40 46 63 	br	#0x6346	
    6026:	7f 40 07 00 	mov.b	#7,	r15	;#0x0007
    602a:	89 3f       	jmp	$-236    	;abs 0x5f3e
    602c:	1a 42 36 11 	mov	&0x1136,r10	
    6030:	69 4a       	mov.b	@r10,	r9	
    6032:	4e 49       	mov.b	r9,	r14	
    6034:	0e 5a       	add	r10,	r14	
    6036:	6f 4e       	mov.b	@r14,	r15	
    6038:	4f 5f       	rla.b	r15		
    603a:	0f 43       	clr	r15		
    603c:	0f 6f       	rlc	r15		
    603e:	ca 4f 2b 00 	mov.b	r15,	43(r10)	;0x002b(r10)
    6042:	67 4e       	mov.b	@r14,	r7	
    6044:	77 f0 7f 00 	and.b	#127,	r7	;#0x007f
    6048:	ca 47 29 00 	mov.b	r7,	41(r10)	;0x0029(r10)
    604c:	da 4e ff ff 28 00 	mov.b	-1(r14),40(r10)	;0xffff(r14), 0x0028(r10)
    6052:	58 4a 02 00 	mov.b	2(r10),	r8	;0x0002(r10)
    6056:	5b 4a 01 00 	mov.b	1(r10),	r11	;0x0001(r10)
    605a:	b0 12 a2 48 	call	#0x48a2	
    605e:	57 42 65 11 	mov.b	&0x1165,r7	
    6062:	b0 12 b4 48 	call	#0x48b4	
    6066:	47 93       	tst.b	r7		
    6068:	48 24       	jz	$+146    	;abs 0x60fa
    606a:	4e 48       	mov.b	r8,	r14	
    606c:	8e 10       	swpb	r14		
    606e:	4f 4b       	mov.b	r11,	r15	
    6070:	0e df       	bis	r15,	r14	
    6072:	8e 10       	swpb	r14		
    6074:	4e 4e       	mov.b	r14,	r14	
    6076:	12 c3       	clrc			
    6078:	0e 10       	rrc	r14		
    607a:	12 c3       	clrc			
    607c:	0e 10       	rrc	r14		
    607e:	3e f0 03 00 	and	#3,	r14	;#0x0003
    6082:	2e 93       	cmp	#2,	r14	;r3 As==10
    6084:	1e 20       	jnz	$+62     	;abs 0x60c2
    6086:	58 4a 07 00 	mov.b	7(r10),	r8	;0x0007(r10)
    608a:	88 10       	swpb	r8		
    608c:	5f 4a 06 00 	mov.b	6(r10),	r15	;0x0006(r10)
    6090:	08 df       	bis	r15,	r8	
    6092:	b0 12 a2 48 	call	#0x48a2	
    6096:	1b 42 8a 11 	mov	&0x118a,r11	
    609a:	b0 12 b4 48 	call	#0x48b4	
    609e:	08 9b       	cmp	r11,	r8	
    60a0:	0b 24       	jz	$+24     	;abs 0x60b8
    60a2:	5f 4a 07 00 	mov.b	7(r10),	r15	;0x0007(r10)
    60a6:	8f 10       	swpb	r15		
    60a8:	5e 4a 06 00 	mov.b	6(r10),	r14	;0x0006(r10)
    60ac:	0f de       	bis	r14,	r15	
    60ae:	1e 43       	mov	#1,	r14	;r3 As==01
    60b0:	3f 93       	cmp	#-1,	r15	;r3 As==11
    60b2:	03 24       	jz	$+8      	;abs 0x60ba
    60b4:	0e 43       	clr	r14		
    60b6:	01 3c       	jmp	$+4      	;abs 0x60ba
    60b8:	1e 43       	mov	#1,	r14	;r3 As==01
    60ba:	0e 93       	tst	r14		
    60bc:	1e 20       	jnz	$+62     	;abs 0x60fa
    60be:	30 40 b2 62 	br	#0x62b2	
    60c2:	3e 90 03 00 	cmp	#3,	r14	;#0x0003
    60c6:	02 24       	jz	$+6      	;abs 0x60cc
    60c8:	30 40 b2 62 	br	#0x62b2	
    60cc:	91 42 f8 11 00 00 	mov	&0x11f8,0(r1)	;0x0000(r1)
    60d2:	91 42 fa 11 02 00 	mov	&0x11fa,2(r1)	;0x0002(r1)
    60d8:	91 42 fc 11 04 00 	mov	&0x11fc,4(r1)	;0x0004(r1)
    60de:	91 42 fe 11 06 00 	mov	&0x11fe,6(r1)	;0x0006(r1)
    60e4:	3d 42       	mov	#8,	r13	;r2 As==11
    60e6:	0e 41       	mov	r1,	r14	
    60e8:	0f 4a       	mov	r10,	r15	
    60ea:	3f 50 06 00 	add	#6,	r15	;#0x0006
    60ee:	b0 12 a8 6a 	call	#0x6aa8	
    60f2:	0f 93       	tst	r15		
    60f4:	02 24       	jz	$+6      	;abs 0x60fa
    60f6:	30 40 b2 62 	br	#0x62b2	
    60fa:	79 90 0d 00 	cmp.b	#13,	r9	;#0x000d
    60fe:	02 2c       	jc	$+6      	;abs 0x6104
    6100:	30 40 b2 62 	br	#0x62b2	
    6104:	1a 42 36 11 	mov	&0x1136,r10	
    6108:	5e 4a 02 00 	mov.b	2(r10),	r14	;0x0002(r10)
    610c:	8e 10       	swpb	r14		
    610e:	5f 4a 01 00 	mov.b	1(r10),	r15	;0x0001(r10)
    6112:	0e df       	bis	r15,	r14	
    6114:	0f 4e       	mov	r14,	r15	
    6116:	8f 10       	swpb	r15		
    6118:	4f 4f       	mov.b	r15,	r15	
    611a:	12 c3       	clrc			
    611c:	0f 10       	rrc	r15		
    611e:	12 c3       	clrc			
    6120:	0f 10       	rrc	r15		
    6122:	3f f0 03 00 	and	#3,	r15	;#0x0003
    6126:	0c 4a       	mov	r10,	r12	
    6128:	3c 50 06 00 	add	#6,	r12	;#0x0006
    612c:	8e 10       	swpb	r14		
    612e:	4e 4e       	mov.b	r14,	r14	
    6130:	7d 40 06 00 	mov.b	#6,	r13	;#0x0006
    6134:	12 c3       	clrc			
    6136:	0e 10       	rrc	r14		
    6138:	7d 53       	add.b	#-1,	r13	;r3 As==11
    613a:	fc 23       	jnz	$-6      	;abs 0x6134
    613c:	3e 90 03 00 	cmp	#3,	r14	;#0x0003
    6140:	02 24       	jz	$+6      	;abs 0x6146
    6142:	2e 43       	mov	#2,	r14	;r3 As==10
    6144:	01 3c       	jmp	$+4      	;abs 0x6148
    6146:	3e 42       	mov	#8,	r14	;r2 As==11
    6148:	3f 90 03 00 	cmp	#3,	r15	;#0x0003
    614c:	02 24       	jz	$+6      	;abs 0x6152
    614e:	2f 43       	mov	#2,	r15	;r3 As==10
    6150:	01 3c       	jmp	$+4      	;abs 0x6154
    6152:	3f 42       	mov	#8,	r15	;r2 As==11
    6154:	0c 5f       	add	r15,	r12	
    6156:	08 43       	clr	r8		
    6158:	0f 43       	clr	r15		
    615a:	0d 4c       	mov	r12,	r13	
    615c:	0d 5f       	add	r15,	r13	
    615e:	6d 4d       	mov.b	@r13,	r13	
    6160:	08 5d       	add	r13,	r8	
    6162:	1f 53       	inc	r15		
    6164:	0f 9e       	cmp	r14,	r15	
    6166:	f9 3b       	jl	$-12     	;abs 0x615a
    6168:	57 4a 03 00 	mov.b	3(r10),	r7	;0x0003(r10)
    616c:	f2 43 68 12 	mov.b	#-1,	&0x1268	;r3 As==11
    6170:	b0 12 a2 48 	call	#0x48a2	
    6174:	5c 42 68 12 	mov.b	&0x1268,r12	
    6178:	3e 40 3e 11 	mov	#4414,	r14	;#0x113e
    617c:	0d 43       	clr	r13		
    617e:	28 9e       	cmp	@r14,	r8	
    6180:	09 20       	jnz	$+20     	;abs 0x6194
    6182:	ce 97 02 00 	cmp.b	r7,	2(r14)	;0x0002(r14)
    6186:	05 20       	jnz	$+12     	;abs 0x6192
    6188:	c2 4c 68 12 	mov.b	r12,	&0x1268	
    618c:	b0 12 b4 48 	call	#0x48b4	
    6190:	8e 3c       	jmp	$+286    	;abs 0x62ae
    6192:	4c 4d       	mov.b	r13,	r12	
    6194:	1d 53       	inc	r13		
    6196:	2e 52       	add	#4,	r14	;r2 As==10
    6198:	2d 92       	cmp	#4,	r13	;r2 As==10
    619a:	f1 23       	jnz	$-28     	;abs 0x617e
    619c:	c2 4c 68 12 	mov.b	r12,	&0x1268	
    61a0:	b0 12 b4 48 	call	#0x48b4	
    61a4:	5b 42 68 12 	mov.b	&0x1268,r11	
    61a8:	b0 12 a2 48 	call	#0x48a2	
    61ac:	7b 93       	cmp.b	#-1,	r11	;r3 As==11
    61ae:	03 24       	jz	$+8      	;abs 0x61b6
    61b0:	c2 9b 18 11 	cmp.b	r11,	&0x1118	
    61b4:	04 20       	jnz	$+10     	;abs 0x61be
    61b6:	5b 42 18 11 	mov.b	&0x1118,r11	
    61ba:	5d 43       	mov.b	#1,	r13	;r3 As==01
    61bc:	01 3c       	jmp	$+4      	;abs 0x61c0
    61be:	4d 43       	clr.b	r13		
    61c0:	4e 4b       	mov.b	r11,	r14	
    61c2:	0e 5e       	rla	r14		
    61c4:	0e 5e       	rla	r14		
    61c6:	8e 48 3e 11 	mov	r8,	4414(r14);0x113e(r14)
    61ca:	ce 47 40 11 	mov.b	r7,	4416(r14);0x1140(r14)
    61ce:	4d 93       	tst.b	r13		
    61d0:	07 24       	jz	$+16     	;abs 0x61e0
    61d2:	5e 42 18 11 	mov.b	&0x1118,r14	
    61d6:	5e 53       	inc.b	r14		
    61d8:	7e f0 03 00 	and.b	#3,	r14	;#0x0003
    61dc:	c2 4e 18 11 	mov.b	r14,	&0x1118	
    61e0:	b0 12 b4 48 	call	#0x48b4	
    61e4:	b0 12 a2 48 	call	#0x48a2	
    61e8:	48 4f       	mov.b	r15,	r8	
    61ea:	0f 4a       	mov	r10,	r15	
    61ec:	b0 12 26 46 	call	#0x4626	
    61f0:	6b 4f       	mov.b	@r15,	r11	
    61f2:	4f 48       	mov.b	r8,	r15	
    61f4:	b0 12 b4 48 	call	#0x48b4	
    61f8:	ca 93 2b 00 	tst.b	43(r10)	;0x002b(r10)
    61fc:	58 24       	jz	$+178    	;abs 0x62ae
    61fe:	7b 90 3f 00 	cmp.b	#63,	r11	;#0x003f
    6202:	55 20       	jnz	$+172    	;abs 0x62ae
    6204:	58 4a 07 00 	mov.b	7(r10),	r8	;0x0007(r10)
    6208:	88 10       	swpb	r8		
    620a:	5f 4a 06 00 	mov.b	6(r10),	r15	;0x0006(r10)
    620e:	08 df       	bis	r15,	r8	
    6210:	b0 12 a2 48 	call	#0x48a2	
    6214:	1b 42 06 11 	mov	&0x1106,r11	
    6218:	b0 12 b4 48 	call	#0x48b4	
    621c:	08 9b       	cmp	r11,	r8	
    621e:	0b 24       	jz	$+24     	;abs 0x6236
    6220:	5f 4a 07 00 	mov.b	7(r10),	r15	;0x0007(r10)
    6224:	8f 10       	swpb	r15		
    6226:	5e 4a 06 00 	mov.b	6(r10),	r14	;0x0006(r10)
    622a:	0f de       	bis	r14,	r15	
    622c:	1e 43       	mov	#1,	r14	;r3 As==01
    622e:	3f 93       	cmp	#-1,	r15	;r3 As==11
    6230:	03 24       	jz	$+8      	;abs 0x6238
    6232:	0e 43       	clr	r14		
    6234:	01 3c       	jmp	$+4      	;abs 0x6238
    6236:	1e 43       	mov	#1,	r14	;r3 As==01
    6238:	0e 93       	tst	r14		
    623a:	39 24       	jz	$+116    	;abs 0x62ae
    623c:	fa 90 06 00 0b 00 	cmp.b	#6,	11(r10)	;#0x0006, 0x000b(r10)
    6242:	35 20       	jnz	$+108    	;abs 0x62ae
    6244:	79 90 11 00 	cmp.b	#17,	r9	;#0x0011
    6248:	32 20       	jnz	$+102    	;abs 0x62ae
    624a:	58 4a 0e 00 	mov.b	14(r10),r8	;0x000e(r10)
    624e:	88 10       	swpb	r8		
    6250:	5f 4a 0f 00 	mov.b	15(r10),r15	;0x000f(r10)
    6254:	08 df       	bis	r15,	r8	
    6256:	18 b3       	bit	#1,	r8	;r3 As==01
    6258:	08 24       	jz	$+18     	;abs 0x626a
    625a:	b0 12 a2 48 	call	#0x48a2	
    625e:	f2 f0 ef ff 31 00 	and.b	#-17,	&0x0031	;#0xffef
    6264:	b0 12 b4 48 	call	#0x48b4	
    6268:	02 3c       	jmp	$+6      	;abs 0x626e
    626a:	b0 12 c8 4f 	call	#0x4fc8	
    626e:	28 b3       	bit	#2,	r8	;r3 As==10
    6270:	08 24       	jz	$+18     	;abs 0x6282
    6272:	b0 12 a2 48 	call	#0x48a2	
    6276:	f2 f0 df ff 31 00 	and.b	#-33,	&0x0031	;#0xffdf
    627c:	b0 12 b4 48 	call	#0x48b4	
    6280:	02 3c       	jmp	$+6      	;abs 0x6286
    6282:	b0 12 d8 4f 	call	#0x4fd8	
    6286:	28 f2       	and	#4,	r8	;r2 As==10
    6288:	08 24       	jz	$+18     	;abs 0x629a
    628a:	b0 12 a2 48 	call	#0x48a2	
    628e:	f2 f0 bf ff 31 00 	and.b	#-65,	&0x0031	;#0xffbf
    6294:	b0 12 b4 48 	call	#0x48b4	
    6298:	02 3c       	jmp	$+6      	;abs 0x629e
    629a:	b0 12 e8 4f 	call	#0x4fe8	
    629e:	5f 4a 0e 00 	mov.b	14(r10),r15	;0x000e(r10)
    62a2:	8f 10       	swpb	r15		
    62a4:	5e 4a 0f 00 	mov.b	15(r10),r14	;0x000f(r10)
    62a8:	0f de       	bis	r14,	r15	
    62aa:	82 4f 0c 11 	mov	r15,	&0x110c	
    62ae:	82 4a 36 11 	mov	r10,	&0x1136	
    62b2:	b0 12 a2 48 	call	#0x48a2	
    62b6:	c2 43 6e 11 	mov.b	#0,	&0x116e	;r3 As==00
    62ba:	b0 12 b4 48 	call	#0x48b4	
    62be:	b0 12 9a 54 	call	#0x549a	
    62c2:	41 3c       	jmp	$+132    	;abs 0x6346
    62c4:	5f 42 7a 11 	mov.b	&0x117a,r15	
    62c8:	5f 92 03 11 	cmp.b	&0x1103,r15	
    62cc:	3c 24       	jz	$+122    	;abs 0x6346
    62ce:	c2 4f 03 11 	mov.b	r15,	&0x1103	
    62d2:	4f 93       	tst.b	r15		
    62d4:	0d 20       	jnz	$+28     	;abs 0x62f0
    62d6:	1f 42 16 11 	mov	&0x1116,r15	
    62da:	b0 12 1e 58 	call	#0x581e	
    62de:	4f 93       	tst.b	r15		
    62e0:	32 24       	jz	$+102    	;abs 0x6346
    62e2:	f2 43 03 11 	mov.b	#-1,	&0x1103	;r3 As==11
    62e6:	1f 42 16 11 	mov	&0x1116,r15	
    62ea:	b0 12 74 5b 	call	#0x5b74	
    62ee:	2b 3c       	jmp	$+88     	;abs 0x6346
    62f0:	f2 43 03 11 	mov.b	#-1,	&0x1103	;r3 As==11
    62f4:	28 3c       	jmp	$+82     	;abs 0x6346
    62f6:	5d 42 64 12 	mov.b	&0x1264,r13	
    62fa:	4d 93       	tst.b	r13		
    62fc:	24 24       	jz	$+74     	;abs 0x6346
    62fe:	5b 42 32 11 	mov.b	&0x1132,r11	
    6302:	3e 40 96 11 	mov	#4502,	r14	;#0x1196
    6306:	4c 43       	clr.b	r12		
    6308:	5f 43       	mov.b	#1,	r15	;r3 As==01
    630a:	4d bf       	bit.b	r15,	r13	
    630c:	0a 24       	jz	$+22     	;abs 0x6322
    630e:	2a 4e       	mov	@r14,	r10	
    6310:	8e 43 00 00 	mov	#0,	0(r14)	;r3 As==00, 0x0000(r14)
    6314:	4d cf       	bic.b	r15,	r13	
    6316:	4c 93       	tst.b	r12		
    6318:	04 20       	jnz	$+10     	;abs 0x6322
    631a:	3a 90 c4 11 	cmp	#4548,	r10	;#0x11c4
    631e:	01 20       	jnz	$+4      	;abs 0x6322
    6320:	4b 43       	clr.b	r11		
    6322:	4f 5f       	rla.b	r15		
    6324:	5c 53       	inc.b	r12		
    6326:	2e 53       	incd	r14		
    6328:	7c 92       	cmp.b	#8,	r12	;r2 As==11
    632a:	ef 23       	jnz	$-32     	;abs 0x630a
    632c:	c2 4d 64 12 	mov.b	r13,	&0x1264	
    6330:	c2 4b 32 11 	mov.b	r11,	&0x1132	
    6334:	08 3c       	jmp	$+18     	;abs 0x6346
    6336:	5f 42 00 11 	mov.b	&0x1100,r15	
    633a:	4e 4f       	mov.b	r15,	r14	
    633c:	0e 5e       	rla	r14		
    633e:	1e 4e 96 11 	mov	4502(r14),r14	;0x1196(r14)
    6342:	b0 12 02 5b 	call	#0x5b02	
    6346:	31 50 0a 00 	add	#10,	r1	;#0x000a
    634a:	36 41       	pop	r6		
    634c:	37 41       	pop	r7		
    634e:	38 41       	pop	r8		
    6350:	39 41       	pop	r9		
    6352:	3a 41       	pop	r10		
    6354:	3b 41       	pop	r11		
    6356:	30 41       	ret			

00006358 <RealMainP__Scheduler__runNextTask>:
    6358:	f2 93 5d 12 	cmp.b	#-1,	&0x125d	;r3 As==11
    635c:	08 24       	jz	$+18     	;abs 0x636e
    635e:	b0 12 1e 48 	call	#0x481e	
    6362:	7f 93       	cmp.b	#-1,	r15	;r3 As==11
    6364:	06 24       	jz	$+14     	;abs 0x6372
    6366:	b0 12 8a 5b 	call	#0x5b8a	
    636a:	5f 43       	mov.b	#1,	r15	;r3 As==01
    636c:	30 41       	ret			
    636e:	4f 43       	clr.b	r15		
    6370:	30 41       	ret			
    6372:	4f 43       	clr.b	r15		
    6374:	30 41       	ret			

00006376 <Msp430TimerP__1__Event__fired>:
    6376:	0b 12       	push	r11		
    6378:	0a 12       	push	r10		
    637a:	09 12       	push	r9		
    637c:	08 12       	push	r8		
    637e:	07 12       	push	r7		
    6380:	06 12       	push	r6		
    6382:	05 12       	push	r5		
    6384:	7f 92       	cmp.b	#8,	r15	;r2 As==11
    6386:	02 28       	jnc	$+6      	;abs 0x638c
    6388:	30 40 24 67 	br	#0x6724	
    638c:	4f 4f       	mov.b	r15,	r15	
    638e:	0f 5f       	rla	r15		
    6390:	10 4f 54 6c 	br	27732(r15)	;0x6c54(r15)
    6394:	1f 42 82 01 	mov	&0x0182,r15	
    6398:	8f 10       	swpb	r15		
    639a:	5f f3       	and.b	#1,	r15	;r3 As==01
    639c:	04 24       	jz	$+10     	;abs 0x63a6
    639e:	1f 42 92 01 	mov	&0x0192,r15	
    63a2:	30 40 24 67 	br	#0x6724	
    63a6:	b2 f0 ef ff 82 01 	and	#-17,	&0x0182	;#0xffef
    63ac:	82 93 80 11 	tst	&0x1180	
    63b0:	08 20       	jnz	$+18     	;abs 0x63c2
    63b2:	82 93 82 11 	tst	&0x1182	
    63b6:	05 20       	jnz	$+12     	;abs 0x63c2
    63b8:	4f 43       	clr.b	r15		
    63ba:	b0 12 b2 49 	call	#0x49b2	
    63be:	30 40 24 67 	br	#0x6724	
    63c2:	b0 12 74 50 	call	#0x5074	
    63c6:	30 40 24 67 	br	#0x6724	
    63ca:	1f 42 84 01 	mov	&0x0184,r15	
    63ce:	8f 10       	swpb	r15		
    63d0:	5f f3       	and.b	#1,	r15	;r3 As==01
    63d2:	02 20       	jnz	$+6      	;abs 0x63d8
    63d4:	30 40 24 67 	br	#0x6724	
    63d8:	18 42 94 01 	mov	&0x0194,r8	
    63dc:	b2 f0 fe ff 84 01 	and	#-2,	&0x0184	;#0xfffe
    63e2:	b2 f0 fd ff 84 01 	and	#-3,	&0x0184	;#0xfffd
    63e8:	b0 12 82 4c 	call	#0x4c82	
    63ec:	0c 4e       	mov	r14,	r12	
    63ee:	0c 88       	sub	r8,	r12	
    63f0:	0d 43       	clr	r13		
    63f2:	06 4e       	mov	r14,	r6	
    63f4:	07 4f       	mov	r15,	r7	
    63f6:	06 8c       	sub	r12,	r6	
    63f8:	07 7d       	subc	r13,	r7	
    63fa:	1f 42 1c 11 	mov	&0x111c,r15	
    63fe:	3f 90 05 00 	cmp	#5,	r15	;#0x0005
    6402:	04 24       	jz	$+10     	;abs 0x640c
    6404:	3f 90 06 00 	cmp	#6,	r15	;#0x0006
    6408:	bc 20       	jnz	$+378    	;abs 0x6582
    640a:	9a 3c       	jmp	$+310    	;abs 0x6540
    640c:	b2 40 06 00 1c 11 	mov	#6,	&0x111c	;#0x0006
    6412:	d2 43 6d 11 	mov.b	#1,	&0x116d	;r3 As==01
    6416:	c2 43 1a 11 	mov.b	#0,	&0x111a	;r3 As==00
    641a:	6f 43       	mov.b	#2,	r15	;r3 As==10
    641c:	b0 12 cc 45 	call	#0x45cc	
    6420:	1c 42 74 11 	mov	&0x1174,r12	
    6424:	cc 46 31 00 	mov.b	r6,	49(r12)	;0x0031(r12)
    6428:	0f 46       	mov	r6,	r15	
    642a:	0d 47       	mov	r7,	r13	
    642c:	8f 10       	swpb	r15		
    642e:	8d 10       	swpb	r13		
    6430:	4f ed       	xor.b	r13,	r15	
    6432:	0f ed       	xor	r13,	r15	
    6434:	cc 4f 30 00 	mov.b	r15,	48(r12)	;0x0030(r12)
    6438:	0f 47       	mov	r7,	r15	
    643a:	cc 47 2f 00 	mov.b	r7,	47(r12)	;0x002f(r12)
    643e:	8f 10       	swpb	r15		
    6440:	cc 4f 2e 00 	mov.b	r15,	46(r12)	;0x002e(r12)
    6444:	cc 93 2d 00 	tst.b	45(r12)	;0x002d(r12)
    6448:	64 24       	jz	$+202    	;abs 0x6512
    644a:	65 4c       	mov.b	@r12,	r5	
    644c:	75 50 fb ff 	add.b	#-5,	r5	;#0xfffb
    6450:	49 45       	mov.b	r5,	r9	
    6452:	09 5c       	add	r12,	r9	
    6454:	6d 49       	mov.b	@r9,	r13	
    6456:	0a 43       	clr	r10		
    6458:	0b 43       	clr	r11		
    645a:	0b 4d       	mov	r13,	r11	
    645c:	8b 10       	swpb	r11		
    645e:	0c 43       	clr	r12		
    6460:	0d 43       	clr	r13		
    6462:	5d 49 01 00 	mov.b	1(r9),	r13	;0x0001(r9)
    6466:	0c da       	bis	r10,	r12	
    6468:	0d db       	bis	r11,	r13	
    646a:	5a 49 03 00 	mov.b	3(r9),	r10	;0x0003(r9)
    646e:	0b 43       	clr	r11		
    6470:	0c da       	bis	r10,	r12	
    6472:	0d db       	bis	r11,	r13	
    6474:	5a 49 02 00 	mov.b	2(r9),	r10	;0x0002(r9)
    6478:	4b ea       	xor.b	r10,	r11	
    647a:	0b ea       	xor	r10,	r11	
    647c:	8b 10       	swpb	r11		
    647e:	4a 4a       	mov.b	r10,	r10	
    6480:	8a 10       	swpb	r10		
    6482:	0c da       	bis	r10,	r12	
    6484:	0d db       	bis	r11,	r13	
    6486:	0c 86       	sub	r6,	r12	
    6488:	0d 77       	subc	r7,	r13	
    648a:	c9 4c 03 00 	mov.b	r12,	3(r9)	;0x0003(r9)
    648e:	0a 4d       	mov	r13,	r10	
    6490:	8c 10       	swpb	r12		
    6492:	8a 10       	swpb	r10		
    6494:	4c ea       	xor.b	r10,	r12	
    6496:	0c ea       	xor	r10,	r12	
    6498:	c9 4c 02 00 	mov.b	r12,	2(r9)	;0x0002(r9)
    649c:	0f 4d       	mov	r13,	r15	
    649e:	c9 4d 01 00 	mov.b	r13,	1(r9)	;0x0001(r9)
    64a2:	8f 10       	swpb	r15		
    64a4:	c9 4f 00 00 	mov.b	r15,	0(r9)	;0x0000(r9)
    64a8:	b0 12 a2 49 	call	#0x49a2	
    64ac:	6c 42       	mov.b	#4,	r12	;r2 As==10
    64ae:	0d 49       	mov	r9,	r13	
    64b0:	4e 45       	mov.b	r5,	r14	
    64b2:	0f 43       	clr	r15		
    64b4:	b0 12 fe 4e 	call	#0x4efe	
    64b8:	b0 12 ac 4b 	call	#0x4bac	
    64bc:	6f 49       	mov.b	@r9,	r15	
    64be:	0c 43       	clr	r12		
    64c0:	0d 43       	clr	r13		
    64c2:	0d 4f       	mov	r15,	r13	
    64c4:	8d 10       	swpb	r13		
    64c6:	0a 43       	clr	r10		
    64c8:	0b 43       	clr	r11		
    64ca:	5b 49 01 00 	mov.b	1(r9),	r11	;0x0001(r9)
    64ce:	0c da       	bis	r10,	r12	
    64d0:	0d db       	bis	r11,	r13	
    64d2:	5a 49 03 00 	mov.b	3(r9),	r10	;0x0003(r9)
    64d6:	0b 43       	clr	r11		
    64d8:	0c da       	bis	r10,	r12	
    64da:	0d db       	bis	r11,	r13	
    64dc:	5a 49 02 00 	mov.b	2(r9),	r10	;0x0002(r9)
    64e0:	4b ea       	xor.b	r10,	r11	
    64e2:	0b ea       	xor	r10,	r11	
    64e4:	8b 10       	swpb	r11		
    64e6:	4a 4a       	mov.b	r10,	r10	
    64e8:	8a 10       	swpb	r10		
    64ea:	0c da       	bis	r10,	r12	
    64ec:	0d db       	bis	r11,	r13	
    64ee:	0c 56       	add	r6,	r12	
    64f0:	0d 67       	addc	r7,	r13	
    64f2:	c9 4c 03 00 	mov.b	r12,	3(r9)	;0x0003(r9)
    64f6:	0f 4c       	mov	r12,	r15	
    64f8:	0c 4d       	mov	r13,	r12	
    64fa:	8f 10       	swpb	r15		
    64fc:	8c 10       	swpb	r12		
    64fe:	4f ec       	xor.b	r12,	r15	
    6500:	0f ec       	xor	r12,	r15	
    6502:	c9 4f 02 00 	mov.b	r15,	2(r9)	;0x0002(r9)
    6506:	0f 4d       	mov	r13,	r15	
    6508:	c9 4d 01 00 	mov.b	r13,	1(r9)	;0x0001(r9)
    650c:	8f 10       	swpb	r15		
    650e:	c9 4f 00 00 	mov.b	r15,	0(r9)	;0x0000(r9)
    6512:	1d 42 74 11 	mov	&0x1174,r13	
    6516:	5f 4d 02 00 	mov.b	2(r13),	r15	;0x0002(r13)
    651a:	8f 10       	swpb	r15		
    651c:	5d 4d 01 00 	mov.b	1(r13),	r13	;0x0001(r13)
    6520:	0f dd       	bis	r13,	r15	
    6522:	3f f0 20 00 	and	#32,	r15	;#0x0020
    6526:	02 24       	jz	$+6      	;abs 0x652c
    6528:	d2 43 51 11 	mov.b	#1,	&0x1151	;r3 As==01
    652c:	b0 12 76 4c 	call	#0x4c76	
    6530:	b2 f0 ef ff 86 01 	and	#-17,	&0x0186	;#0xffef
    6536:	e2 b3 1c 00 	bit.b	#2,	&0x001c	;r3 As==10
    653a:	02 24       	jz	$+6      	;abs 0x6540
    653c:	30 40 24 67 	br	#0x6724	
    6540:	c2 43 6d 11 	mov.b	#0,	&0x116d	;r3 As==00
    6544:	5f 43       	mov.b	#1,	r15	;r3 As==01
    6546:	b0 12 cc 45 	call	#0x45cc	
    654a:	1d 42 74 11 	mov	&0x1174,r13	
    654e:	5f 4d 02 00 	mov.b	2(r13),	r15	;0x0002(r13)
    6552:	8f 10       	swpb	r15		
    6554:	5d 4d 01 00 	mov.b	1(r13),	r13	;0x0001(r13)
    6558:	0f dd       	bis	r13,	r15	
    655a:	3f f0 20 00 	and	#32,	r15	;#0x0020
    655e:	09 24       	jz	$+20     	;abs 0x6572
    6560:	b2 40 07 00 1c 11 	mov	#7,	&0x111c	;#0x0007
    6566:	3e 40 00 01 	mov	#256,	r14	;#0x0100
    656a:	0f 43       	clr	r15		
    656c:	b0 12 b0 4d 	call	#0x4db0	
    6570:	03 3c       	jmp	$+8      	;abs 0x6578
    6572:	4f 43       	clr.b	r15		
    6574:	b0 12 92 4b 	call	#0x4b92	
    6578:	e2 b3 1c 00 	bit.b	#2,	&0x001c	;r3 As==10
    657c:	02 20       	jnz	$+6      	;abs 0x6582
    657e:	30 40 24 67 	br	#0x6724	
    6582:	c2 93 1a 11 	tst.b	&0x111a	
    6586:	27 20       	jnz	$+80     	;abs 0x65d6
    6588:	c2 93 6d 11 	tst.b	&0x116d	
    658c:	24 20       	jnz	$+74     	;abs 0x65d6
    658e:	d2 43 6d 11 	mov.b	#1,	&0x116d	;r3 As==01
    6592:	6f 43       	mov.b	#2,	r15	;r3 As==10
    6594:	b0 12 cc 45 	call	#0x45cc	
    6598:	5c 42 1c 00 	mov.b	&0x001c,r12	
    659c:	5d 42 5c 12 	mov.b	&0x125c,r13	
    65a0:	7d 92       	cmp.b	#8,	r13	;r2 As==11
    65a2:	0e 2c       	jc	$+30     	;abs 0x65c0
    65a4:	4f 4d       	mov.b	r13,	r15	
    65a6:	5f 52 60 12 	add.b	&0x1260,r15	
    65aa:	3f f0 07 00 	and	#7,	r15	;#0x0007
    65ae:	0f 5f       	rla	r15		
    65b0:	0f 5f       	rla	r15		
    65b2:	8f 46 08 12 	mov	r6,	4616(r15);0x1208(r15)
    65b6:	8f 47 0a 12 	mov	r7,	4618(r15);0x120a(r15)
    65ba:	5d 53       	inc.b	r13		
    65bc:	c2 4d 5c 12 	mov.b	r13,	&0x125c	
    65c0:	d2 43 1a 11 	mov.b	#1,	&0x111a	;r3 As==01
    65c4:	82 48 90 11 	mov	r8,	&0x1190	
    65c8:	e2 b3 1c 00 	bit.b	#2,	&0x001c	;r3 As==10
    65cc:	ab 20       	jnz	$+344    	;abs 0x6724
    65ce:	4e 4c       	mov.b	r12,	r14	
    65d0:	6e f3       	and.b	#2,	r14	;r3 As==10
    65d2:	5a 43       	mov.b	#1,	r10	;r3 As==01
    65d4:	01 20       	jnz	$+4      	;abs 0x65d8
    65d6:	4a 43       	clr.b	r10		
    65d8:	d2 93 6d 11 	cmp.b	#1,	&0x116d	;r3 As==01
    65dc:	a3 20       	jnz	$+328    	;abs 0x6724
    65de:	c2 43 6d 11 	mov.b	#0,	&0x116d	;r3 As==00
    65e2:	5f 43       	mov.b	#1,	r15	;r3 As==01
    65e4:	b0 12 cc 45 	call	#0x45cc	
    65e8:	c2 43 1a 11 	mov.b	#0,	&0x111a	;r3 As==00
    65ec:	4a 93       	tst.b	r10		
    65ee:	9a 20       	jnz	$+310    	;abs 0x6724
    65f0:	0f 48       	mov	r8,	r15	
    65f2:	1f 82 90 11 	sub	&0x1190,r15	
    65f6:	3f 90 0a 00 	cmp	#10,	r15	;#0x000a
    65fa:	94 2c       	jc	$+298    	;abs 0x6724
    65fc:	5f 42 5c 12 	mov.b	&0x125c,r15	
    6600:	4f 93       	tst.b	r15		
    6602:	03 24       	jz	$+8      	;abs 0x660a
    6604:	7f 53       	add.b	#-1,	r15	;r3 As==11
    6606:	c2 4f 5c 12 	mov.b	r15,	&0x125c	
    660a:	1f 42 74 11 	mov	&0x1174,r15	
    660e:	0f 93       	tst	r15		
    6610:	89 24       	jz	$+276    	;abs 0x6724
    6612:	cf 43 2d 00 	mov.b	#0,	45(r15)	;r3 As==00, 0x002d(r15)
    6616:	cf 43 31 00 	mov.b	#0,	49(r15)	;r3 As==00, 0x0031(r15)
    661a:	cf 43 30 00 	mov.b	#0,	48(r15)	;r3 As==00, 0x0030(r15)
    661e:	cf 43 2f 00 	mov.b	#0,	47(r15)	;r3 As==00, 0x002f(r15)
    6622:	ff 40 80 ff 2e 00 	mov.b	#-128,	46(r15)	;#0xff80, 0x002e(r15)
    6628:	7d 3c       	jmp	$+252    	;abs 0x6724
    662a:	1f 42 86 01 	mov	&0x0186,r15	
    662e:	8f 10       	swpb	r15		
    6630:	5f f3       	and.b	#1,	r15	;r3 As==01
    6632:	03 24       	jz	$+8      	;abs 0x663a
    6634:	1f 42 96 01 	mov	&0x0196,r15	
    6638:	75 3c       	jmp	$+236    	;abs 0x6724
    663a:	b2 f0 ef ff 86 01 	and	#-17,	&0x0186	;#0xffef
    6640:	82 93 68 11 	tst	&0x1168	
    6644:	46 20       	jnz	$+142    	;abs 0x66d2
    6646:	82 93 6a 11 	tst	&0x116a	
    664a:	43 20       	jnz	$+136    	;abs 0x66d2
    664c:	1f 42 1c 11 	mov	&0x111c,r15	
    6650:	3f 50 fd ff 	add	#-3,	r15	;#0xfffd
    6654:	3f 90 06 00 	cmp	#6,	r15	;#0x0006
    6658:	2f 2c       	jc	$+96     	;abs 0x66b8
    665a:	0f 5f       	rla	r15		
    665c:	10 4f 64 6c 	br	27748(r15)	;0x6c64(r15)
    6660:	f2 b0 10 00 20 00 	bit.b	#16,	&0x0020	;#0x0010
    6666:	08 24       	jz	$+18     	;abs 0x6678
    6668:	a2 42 1c 11 	mov	#4,	&0x111c	;r2 As==10
    666c:	3e 40 07 00 	mov	#7,	r14	;#0x0007
    6670:	0f 43       	clr	r15		
    6672:	b0 12 b0 4d 	call	#0x4db0	
    6676:	20 3c       	jmp	$+66     	;abs 0x66b8
    6678:	b0 12 f4 4d 	call	#0x4df4	
    667c:	1d 3c       	jmp	$+60     	;abs 0x66b8
    667e:	7f 40 03 00 	mov.b	#3,	r15	;#0x0003
    6682:	b0 12 fa 53 	call	#0x53fa	
    6686:	4f 93       	tst.b	r15		
    6688:	05 24       	jz	$+12     	;abs 0x6694
    668a:	7f 40 03 00 	mov.b	#3,	r15	;#0x0003
    668e:	b0 12 5a 53 	call	#0x535a	
    6692:	12 3c       	jmp	$+38     	;abs 0x66b8
    6694:	b0 12 22 4e 	call	#0x4e22	
    6698:	0f 3c       	jmp	$+32     	;abs 0x66b8
    669a:	4f 43       	clr.b	r15		
    669c:	0b 3c       	jmp	$+24     	;abs 0x66b4
    669e:	7f 40 09 00 	mov.b	#9,	r15	;#0x0009
    66a2:	b0 12 52 49 	call	#0x4952	
    66a6:	5f 43       	mov.b	#1,	r15	;r3 As==01
    66a8:	b0 12 cc 45 	call	#0x45cc	
    66ac:	b0 12 76 4c 	call	#0x4c76	
    66b0:	7f 40 07 00 	mov.b	#7,	r15	;#0x0007
    66b4:	b0 12 92 4b 	call	#0x4b92	
    66b8:	92 93 2e 11 	cmp	#1,	&0x112e	;r3 As==01
    66bc:	33 20       	jnz	$+104    	;abs 0x6724
    66be:	a2 43 2e 11 	mov	#2,	&0x112e	;r3 As==10
    66c2:	b0 12 0e 52 	call	#0x520e	
    66c6:	b0 12 1e 52 	call	#0x521e	
    66ca:	4f 43       	clr.b	r15		
    66cc:	b0 12 5a 53 	call	#0x535a	
    66d0:	29 3c       	jmp	$+84     	;abs 0x6724
    66d2:	b0 12 cc 4c 	call	#0x4ccc	
    66d6:	26 3c       	jmp	$+78     	;abs 0x6724
    66d8:	1f 42 88 01 	mov	&0x0188,r15	
    66dc:	8f 10       	swpb	r15		
    66de:	5f f3       	and.b	#1,	r15	;r3 As==01
    66e0:	21 24       	jz	$+68     	;abs 0x6724
    66e2:	1f 42 98 01 	mov	&0x0198,r15	
    66e6:	1e 3c       	jmp	$+62     	;abs 0x6724
    66e8:	1f 42 8a 01 	mov	&0x018a,r15	
    66ec:	8f 10       	swpb	r15		
    66ee:	5f f3       	and.b	#1,	r15	;r3 As==01
    66f0:	19 24       	jz	$+52     	;abs 0x6724
    66f2:	1f 42 9a 01 	mov	&0x019a,r15	
    66f6:	16 3c       	jmp	$+46     	;abs 0x6724
    66f8:	1f 42 8c 01 	mov	&0x018c,r15	
    66fc:	8f 10       	swpb	r15		
    66fe:	5f f3       	and.b	#1,	r15	;r3 As==01
    6700:	11 24       	jz	$+36     	;abs 0x6724
    6702:	1f 42 9c 01 	mov	&0x019c,r15	
    6706:	0e 3c       	jmp	$+30     	;abs 0x6724
    6708:	1f 42 8e 01 	mov	&0x018e,r15	
    670c:	8f 10       	swpb	r15		
    670e:	5f f3       	and.b	#1,	r15	;r3 As==01
    6710:	09 24       	jz	$+20     	;abs 0x6724
    6712:	1f 42 9e 01 	mov	&0x019e,r15	
    6716:	06 3c       	jmp	$+14     	;abs 0x6724
    6718:	92 53 7c 11 	inc	&0x117c	
    671c:	92 53 98 11 	inc	&0x1198	
    6720:	82 63 9a 11 	adc	&0x119a	
    6724:	35 41       	pop	r5		
    6726:	36 41       	pop	r6		
    6728:	37 41       	pop	r7		
    672a:	38 41       	pop	r8		
    672c:	39 41       	pop	r9		
    672e:	3a 41       	pop	r10		
    6730:	3b 41       	pop	r11		
    6732:	30 41       	ret			

00006734 <sig_TIMERA0_VECTOR>:
    6734:	0f 12       	push	r15		
    6736:	0e 12       	push	r14		
    6738:	0d 12       	push	r13		
    673a:	0c 12       	push	r12		
    673c:	4f 43       	clr.b	r15		
    673e:	b0 12 3c 48 	call	#0x483c	
    6742:	3c 41       	pop	r12		
    6744:	3d 41       	pop	r13		
    6746:	3e 41       	pop	r14		
    6748:	3f 41       	pop	r15		
    674a:	b1 c0 f0 00 00 00 	bic	#240,	0(r1)	;#0x00f0, 0x0000(r1)
    6750:	00 13       	reti			

00006752 <sig_TIMERA1_VECTOR>:
    6752:	0f 12       	push	r15		
    6754:	0e 12       	push	r14		
    6756:	0d 12       	push	r13		
    6758:	0c 12       	push	r12		
    675a:	1f 42 2e 01 	mov	&0x012e,r15	
    675e:	4f 4f       	mov.b	r15,	r15	
    6760:	12 c3       	clrc			
    6762:	4f 10       	rrc.b	r15		
    6764:	b0 12 3c 48 	call	#0x483c	
    6768:	3c 41       	pop	r12		
    676a:	3d 41       	pop	r13		
    676c:	3e 41       	pop	r14		
    676e:	3f 41       	pop	r15		
    6770:	b1 c0 f0 00 00 00 	bic	#240,	0(r1)	;#0x00f0, 0x0000(r1)
    6776:	00 13       	reti			

00006778 <sig_TIMERB0_VECTOR>:
    6778:	0f 12       	push	r15		
    677a:	0e 12       	push	r14		
    677c:	0d 12       	push	r13		
    677e:	0c 12       	push	r12		
    6780:	4f 43       	clr.b	r15		
    6782:	b0 12 76 63 	call	#0x6376	
    6786:	3c 41       	pop	r12		
    6788:	3d 41       	pop	r13		
    678a:	3e 41       	pop	r14		
    678c:	3f 41       	pop	r15		
    678e:	b1 c0 f0 00 00 00 	bic	#240,	0(r1)	;#0x00f0, 0x0000(r1)
    6794:	00 13       	reti			

00006796 <sig_TIMERB1_VECTOR>:
    6796:	0f 12       	push	r15		
    6798:	0e 12       	push	r14		
    679a:	0d 12       	push	r13		
    679c:	0c 12       	push	r12		
    679e:	1f 42 1e 01 	mov	&0x011e,r15	
    67a2:	4f 4f       	mov.b	r15,	r15	
    67a4:	12 c3       	clrc			
    67a6:	4f 10       	rrc.b	r15		
    67a8:	b0 12 76 63 	call	#0x6376	
    67ac:	3c 41       	pop	r12		
    67ae:	3d 41       	pop	r13		
    67b0:	3e 41       	pop	r14		
    67b2:	3f 41       	pop	r15		
    67b4:	b1 c0 f0 00 00 00 	bic	#240,	0(r1)	;#0x00f0, 0x0000(r1)
    67ba:	00 13       	reti			

000067bc <sig_PORT1_VECTOR>:
    67bc:	0f 12       	push	r15		
    67be:	0e 12       	push	r14		
    67c0:	0d 12       	push	r13		
    67c2:	0c 12       	push	r12		
    67c4:	21 83       	decd	r1		
    67c6:	5e 42 23 00 	mov.b	&0x0023,r14	
    67ca:	5f 42 25 00 	mov.b	&0x0025,r15	
    67ce:	4f fe       	and.b	r14,	r15	
    67d0:	4f 4f       	mov.b	r15,	r15	
    67d2:	81 4f 00 00 	mov	r15,	0(r1)	;0x0000(r1)
    67d6:	91 b3 00 00 	bit	#1,	0(r1)	;r3 As==01, 0x0000(r1)
    67da:	0e 24       	jz	$+30     	;abs 0x67f8
    67dc:	f2 f0 fe ff 23 00 	and.b	#-2,	&0x0023	;#0xfffe
    67e2:	92 93 60 11 	cmp	#1,	&0x1160	;r3 As==01
    67e6:	05 20       	jnz	$+12     	;abs 0x67f2
    67e8:	a2 43 60 11 	mov	#2,	&0x1160	;r3 As==10
    67ec:	b0 12 74 54 	call	#0x5474	
    67f0:	55 3c       	jmp	$+172    	;abs 0x689c
    67f2:	d2 53 66 11 	inc.b	&0x1166	
    67f6:	52 3c       	jmp	$+166    	;abs 0x689c
    67f8:	a1 b3 00 00 	bit	#2,	0(r1)	;r3 As==10, 0x0000(r1)
    67fc:	05 24       	jz	$+12     	;abs 0x6808
    67fe:	5f 42 23 00 	mov.b	&0x0023,r15	
    6802:	7f f0 fd ff 	and.b	#-3,	r15	;#0xfffd
    6806:	48 3c       	jmp	$+146    	;abs 0x6898
    6808:	a1 b2 00 00 	bit	#4,	0(r1)	;r2 As==10, 0x0000(r1)
    680c:	05 24       	jz	$+12     	;abs 0x6818
    680e:	5f 42 23 00 	mov.b	&0x0023,r15	
    6812:	7f f0 fb ff 	and.b	#-5,	r15	;#0xfffb
    6816:	40 3c       	jmp	$+130    	;abs 0x6898
    6818:	b1 b2 00 00 	bit	#8,	0(r1)	;r2 As==11, 0x0000(r1)
    681c:	05 24       	jz	$+12     	;abs 0x6828
    681e:	5f 42 23 00 	mov.b	&0x0023,r15	
    6822:	7f f0 f7 ff 	and.b	#-9,	r15	;#0xfff7
    6826:	38 3c       	jmp	$+114    	;abs 0x6898
    6828:	b1 b0 10 00 00 00 	bit	#16,	0(r1)	;#0x0010, 0x0000(r1)
    682e:	1a 24       	jz	$+54     	;abs 0x6864
    6830:	f2 f0 ef ff 23 00 	and.b	#-17,	&0x0023	;#0xffef
    6836:	a2 42 2e 11 	mov	#4,	&0x112e	;r2 As==10
    683a:	f2 f0 ef ff 25 00 	and.b	#-17,	&0x0025	;#0xffef
    6840:	f2 f0 ef ff 23 00 	and.b	#-17,	&0x0023	;#0xffef
    6846:	0e 43       	clr	r14		
    6848:	7f 40 1d 00 	mov.b	#29,	r15	;#0x001d
    684c:	b0 12 ba 4e 	call	#0x4eba	
    6850:	b0 12 76 4f 	call	#0x4f76	
    6854:	b0 12 ac 4b 	call	#0x4bac	
    6858:	b0 12 a2 49 	call	#0x49a2	
    685c:	6f 43       	mov.b	#2,	r15	;r3 As==10
    685e:	b0 12 b2 49 	call	#0x49b2	
    6862:	1c 3c       	jmp	$+58     	;abs 0x689c
    6864:	b1 b0 20 00 00 00 	bit	#32,	0(r1)	;#0x0020, 0x0000(r1)
    686a:	05 24       	jz	$+12     	;abs 0x6876
    686c:	5f 42 23 00 	mov.b	&0x0023,r15	
    6870:	7f f0 df ff 	and.b	#-33,	r15	;#0xffdf
    6874:	11 3c       	jmp	$+36     	;abs 0x6898
    6876:	b1 b0 40 00 00 00 	bit	#64,	0(r1)	;#0x0040, 0x0000(r1)
    687c:	05 24       	jz	$+12     	;abs 0x6888
    687e:	5f 42 23 00 	mov.b	&0x0023,r15	
    6882:	7f f0 bf ff 	and.b	#-65,	r15	;#0xffbf
    6886:	08 3c       	jmp	$+18     	;abs 0x6898
    6888:	b1 b0 80 00 00 00 	bit	#128,	0(r1)	;#0x0080, 0x0000(r1)
    688e:	06 24       	jz	$+14     	;abs 0x689c
    6890:	5f 42 23 00 	mov.b	&0x0023,r15	
    6894:	7f f0 7f 00 	and.b	#127,	r15	;#0x007f
    6898:	c2 4f 23 00 	mov.b	r15,	&0x0023	
    689c:	21 53       	incd	r1		
    689e:	3c 41       	pop	r12		
    68a0:	3d 41       	pop	r13		
    68a2:	3e 41       	pop	r14		
    68a4:	3f 41       	pop	r15		
    68a6:	b1 c0 f0 00 00 00 	bic	#240,	0(r1)	;#0x00f0, 0x0000(r1)
    68ac:	00 13       	reti			

000068ae <sig_PORT2_VECTOR>:
    68ae:	0f 12       	push	r15		
    68b0:	0e 12       	push	r14		
    68b2:	21 83       	decd	r1		
    68b4:	5e 42 2b 00 	mov.b	&0x002b,r14	
    68b8:	5f 42 2d 00 	mov.b	&0x002d,r15	
    68bc:	4f fe       	and.b	r14,	r15	
    68be:	4f 4f       	mov.b	r15,	r15	
    68c0:	81 4f 00 00 	mov	r15,	0(r1)	;0x0000(r1)
    68c4:	91 b3 00 00 	bit	#1,	0(r1)	;r3 As==01, 0x0000(r1)
    68c8:	05 24       	jz	$+12     	;abs 0x68d4
    68ca:	5f 42 2b 00 	mov.b	&0x002b,r15	
    68ce:	7f f0 fe ff 	and.b	#-2,	r15	;#0xfffe
    68d2:	3b 3c       	jmp	$+120    	;abs 0x694a
    68d4:	a1 b3 00 00 	bit	#2,	0(r1)	;r3 As==10, 0x0000(r1)
    68d8:	05 24       	jz	$+12     	;abs 0x68e4
    68da:	5f 42 2b 00 	mov.b	&0x002b,r15	
    68de:	7f f0 fd ff 	and.b	#-3,	r15	;#0xfffd
    68e2:	33 3c       	jmp	$+104    	;abs 0x694a
    68e4:	a1 b2 00 00 	bit	#4,	0(r1)	;r2 As==10, 0x0000(r1)
    68e8:	05 24       	jz	$+12     	;abs 0x68f4
    68ea:	5f 42 2b 00 	mov.b	&0x002b,r15	
    68ee:	7f f0 fb ff 	and.b	#-5,	r15	;#0xfffb
    68f2:	2b 3c       	jmp	$+88     	;abs 0x694a
    68f4:	b1 b2 00 00 	bit	#8,	0(r1)	;r2 As==11, 0x0000(r1)
    68f8:	05 24       	jz	$+12     	;abs 0x6904
    68fa:	5f 42 2b 00 	mov.b	&0x002b,r15	
    68fe:	7f f0 f7 ff 	and.b	#-9,	r15	;#0xfff7
    6902:	23 3c       	jmp	$+72     	;abs 0x694a
    6904:	b1 b0 10 00 00 00 	bit	#16,	0(r1)	;#0x0010, 0x0000(r1)
    690a:	05 24       	jz	$+12     	;abs 0x6916
    690c:	5f 42 2b 00 	mov.b	&0x002b,r15	
    6910:	7f f0 ef ff 	and.b	#-17,	r15	;#0xffef
    6914:	1a 3c       	jmp	$+54     	;abs 0x694a
    6916:	b1 b0 20 00 00 00 	bit	#32,	0(r1)	;#0x0020, 0x0000(r1)
    691c:	05 24       	jz	$+12     	;abs 0x6928
    691e:	5f 42 2b 00 	mov.b	&0x002b,r15	
    6922:	7f f0 df ff 	and.b	#-33,	r15	;#0xffdf
    6926:	11 3c       	jmp	$+36     	;abs 0x694a
    6928:	b1 b0 40 00 00 00 	bit	#64,	0(r1)	;#0x0040, 0x0000(r1)
    692e:	05 24       	jz	$+12     	;abs 0x693a
    6930:	5f 42 2b 00 	mov.b	&0x002b,r15	
    6934:	7f f0 bf ff 	and.b	#-65,	r15	;#0xffbf
    6938:	08 3c       	jmp	$+18     	;abs 0x694a
    693a:	b1 b0 80 00 00 00 	bit	#128,	0(r1)	;#0x0080, 0x0000(r1)
    6940:	06 24       	jz	$+14     	;abs 0x694e
    6942:	5f 42 2b 00 	mov.b	&0x002b,r15	
    6946:	7f f0 7f 00 	and.b	#127,	r15	;#0x007f
    694a:	c2 4f 2b 00 	mov.b	r15,	&0x002b	
    694e:	21 53       	incd	r1		
    6950:	3e 41       	pop	r14		
    6952:	3f 41       	pop	r15		
    6954:	b1 c0 f0 00 00 00 	bic	#240,	0(r1)	;#0x00f0, 0x0000(r1)
    695a:	00 13       	reti			

0000695c <sig_UART0RX_VECTOR>:
    695c:	0f 12       	push	r15		
    695e:	0e 12       	push	r14		
    6960:	0d 12       	push	r13		
    6962:	0c 12       	push	r12		
    6964:	5e 42 76 00 	mov.b	&0x0076,r14	
    6968:	5f 42 2a 11 	mov.b	&0x112a,r15	
    696c:	4f 93       	tst.b	r15		
    696e:	1c 24       	jz	$+58     	;abs 0x69a8
    6970:	18 3c       	jmp	$+50     	;abs 0x69a2
    6972:	c2 93 08 11 	tst.b	&0x1108	
    6976:	18 20       	jnz	$+50     	;abs 0x69a8
    6978:	1f 42 b0 11 	mov	&0x11b0,r15	
    697c:	0f 93       	tst	r15		
    697e:	04 24       	jz	$+10     	;abs 0x6988
    6980:	1f 52 5e 12 	add	&0x125e,r15	
    6984:	cf 4e ff ff 	mov.b	r14,	-1(r15)	;0xffff(r15)
    6988:	92 92 62 12 5e 12 	cmp	&0x1262,&0x125e	
    698e:	03 2c       	jc	$+8      	;abs 0x6996
    6990:	b0 12 bc 48 	call	#0x48bc	
    6994:	09 3c       	jmp	$+20     	;abs 0x69a8
    6996:	f2 f0 bf ff 00 00 	and.b	#-65,	&0x0000	;#0xffbf
    699c:	b0 12 10 55 	call	#0x5510	
    69a0:	03 3c       	jmp	$+8      	;abs 0x69a8
    69a2:	7f 90 03 00 	cmp.b	#3,	r15	;#0x0003
    69a6:	e5 27       	jz	$-52     	;abs 0x6972
    69a8:	3c 41       	pop	r12		
    69aa:	3d 41       	pop	r13		
    69ac:	3e 41       	pop	r14		
    69ae:	3f 41       	pop	r15		
    69b0:	b1 c0 f0 00 00 00 	bic	#240,	0(r1)	;#0x00f0, 0x0000(r1)
    69b6:	00 13       	reti			

000069b8 <sig_UART0TX_VECTOR>:
    69b8:	0f 12       	push	r15		
    69ba:	5f 42 70 00 	mov.b	&0x0070,r15	
    69be:	3f f0 20 00 	and	#32,	r15	;#0x0020
    69c2:	06 24       	jz	$+14     	;abs 0x69d0
    69c4:	5f 42 70 00 	mov.b	&0x0070,r15	
    69c8:	2f f2       	and	#4,	r15	;r2 As==10
    69ca:	02 24       	jz	$+6      	;abs 0x69d0
    69cc:	5f 42 70 00 	mov.b	&0x0070,r15	
    69d0:	3f 41       	pop	r15		
    69d2:	b1 c0 f0 00 00 00 	bic	#240,	0(r1)	;#0x00f0, 0x0000(r1)
    69d8:	00 13       	reti			

000069da <__umulsidi3>:
    69da:	0b 12       	push	r11		
    69dc:	0a 12       	push	r10		
    69de:	09 12       	push	r9		
    69e0:	08 12       	push	r8		
    69e2:	07 12       	push	r7		
    69e4:	06 12       	push	r6		
    69e6:	05 12       	push	r5		
    69e8:	04 12       	push	r4		
    69ea:	08 4c       	mov	r12,	r8	
    69ec:	09 4d       	mov	r13,	r9	
    69ee:	0a 43       	clr	r10		
    69f0:	0b 43       	clr	r11		
    69f2:	0c 4e       	mov	r14,	r12	
    69f4:	0d 4f       	mov	r15,	r13	
    69f6:	0e 43       	clr	r14		
    69f8:	0f 43       	clr	r15		
    69fa:	b0 12 46 6a 	call	#0x6a46	
    69fe:	34 41       	pop	r4		
    6a00:	35 41       	pop	r5		
    6a02:	36 41       	pop	r6		
    6a04:	37 41       	pop	r7		
    6a06:	38 41       	pop	r8		
    6a08:	39 41       	pop	r9		
    6a0a:	3a 41       	pop	r10		
    6a0c:	3b 41       	pop	r11		
    6a0e:	30 41       	ret			

00006a10 <__muldi3>:
    6a10:	0b 12       	push	r11		
    6a12:	0a 12       	push	r10		
    6a14:	09 12       	push	r9		
    6a16:	08 12       	push	r8		
    6a18:	07 12       	push	r7		
    6a1a:	06 12       	push	r6		
    6a1c:	05 12       	push	r5		
    6a1e:	04 12       	push	r4		
    6a20:	18 41 12 00 	mov	18(r1),	r8	;0x0012(r1)
    6a24:	19 41 14 00 	mov	20(r1),	r9	;0x0014(r1)
    6a28:	1a 41 16 00 	mov	22(r1),	r10	;0x0016(r1)
    6a2c:	1b 41 18 00 	mov	24(r1),	r11	;0x0018(r1)
    6a30:	b0 12 46 6a 	call	#0x6a46	
    6a34:	34 41       	pop	r4		
    6a36:	35 41       	pop	r5		
    6a38:	36 41       	pop	r6		
    6a3a:	37 41       	pop	r7		
    6a3c:	38 41       	pop	r8		
    6a3e:	39 41       	pop	r9		
    6a40:	3a 41       	pop	r10		
    6a42:	3b 41       	pop	r11		
    6a44:	30 41       	ret			

00006a46 <__xabi_muldi3>:
    6a46:	04 43       	clr	r4		
    6a48:	05 43       	clr	r5		
    6a4a:	06 43       	clr	r6		
    6a4c:	07 43       	clr	r7		
    6a4e:	0e 3c       	jmp	$+30     	;abs 0x6a6c
    6a50:	12 c3       	clrc			
    6a52:	0b 10       	rrc	r11		
    6a54:	0a 10       	rrc	r10		
    6a56:	09 10       	rrc	r9		
    6a58:	08 10       	rrc	r8		
    6a5a:	04 28       	jnc	$+10     	;abs 0x6a64
    6a5c:	04 5c       	add	r12,	r4	
    6a5e:	05 6d       	addc	r13,	r5	
    6a60:	06 6e       	addc	r14,	r6	
    6a62:	07 6f       	addc	r15,	r7	
    6a64:	0c 5c       	rla	r12		
    6a66:	0d 6d       	rlc	r13		
    6a68:	0e 6e       	rlc	r14		
    6a6a:	0f 6f       	rlc	r15		
    6a6c:	08 93       	tst	r8		
    6a6e:	f0 23       	jnz	$-30     	;abs 0x6a50
    6a70:	09 93       	tst	r9		
    6a72:	ee 23       	jnz	$-34     	;abs 0x6a50
    6a74:	0a 93       	tst	r10		
    6a76:	ec 23       	jnz	$-38     	;abs 0x6a50
    6a78:	0b 93       	tst	r11		
    6a7a:	ea 23       	jnz	$-42     	;abs 0x6a50
    6a7c:	0c 44       	mov	r4,	r12	
    6a7e:	0d 45       	mov	r5,	r13	
    6a80:	0e 46       	mov	r6,	r14	
    6a82:	0f 47       	mov	r7,	r15	
    6a84:	30 41       	ret			

00006a86 <__udivhi3>:
    6a86:	7c 40 10 00 	mov.b	#16,	r12	;#0x0010
    6a8a:	0d 4e       	mov	r14,	r13	
    6a8c:	0e 43       	clr	r14		
    6a8e:	0f 5f       	rla	r15		
    6a90:	0e 6e       	rlc	r14		
    6a92:	0e 9d       	cmp	r13,	r14	
    6a94:	02 28       	jnc	$+6      	;abs 0x6a9a
    6a96:	0e 8d       	sub	r13,	r14	
    6a98:	1f d3       	bis	#1,	r15	;r3 As==01
    6a9a:	1c 83       	dec	r12		
    6a9c:	f8 23       	jnz	$-14     	;abs 0x6a8e
    6a9e:	30 41       	ret			

00006aa0 <__umodhi3>:
    6aa0:	b0 12 86 6a 	call	#0x6a86	
    6aa4:	0f 4e       	mov	r14,	r15	
    6aa6:	30 41       	ret			

00006aa8 <memcmp>:
    6aa8:	0b 12       	push	r11		
    6aaa:	0d 93       	tst	r13		
    6aac:	0a 24       	jz	$+22     	;abs 0x6ac2
    6aae:	7b 4f       	mov.b	@r15+,	r11	
    6ab0:	7c 4e       	mov.b	@r14+,	r12	
    6ab2:	4b 9c       	cmp.b	r12,	r11	
    6ab4:	04 24       	jz	$+10     	;abs 0x6abe
    6ab6:	4f 4b       	mov.b	r11,	r15	
    6ab8:	4e 4c       	mov.b	r12,	r14	
    6aba:	0f 8e       	sub	r14,	r15	
    6abc:	03 3c       	jmp	$+8      	;abs 0x6ac4
    6abe:	3d 53       	add	#-1,	r13	;r3 As==11
    6ac0:	f4 3f       	jmp	$-22     	;abs 0x6aaa
    6ac2:	0f 43       	clr	r15		
    6ac4:	3b 41       	pop	r11		
    6ac6:	30 41       	ret			

00006ac8 <memcpy>:
    6ac8:	0b 12       	push	r11		
    6aca:	0a 12       	push	r10		
    6acc:	09 12       	push	r9		
    6ace:	08 12       	push	r8		
    6ad0:	07 12       	push	r7		
    6ad2:	0d 93       	tst	r13		
    6ad4:	70 24       	jz	$+226    	;abs 0x6bb6
    6ad6:	0f 9e       	cmp	r14,	r15	
    6ad8:	6e 24       	jz	$+222    	;abs 0x6bb6
    6ada:	34 2c       	jc	$+106    	;abs 0x6b44
    6adc:	0c 4e       	mov	r14,	r12	
    6ade:	0c df       	bis	r15,	r12	
    6ae0:	1c f3       	and	#1,	r12	;r3 As==01
    6ae2:	1b 24       	jz	$+56     	;abs 0x6b1a
    6ae4:	0c 4e       	mov	r14,	r12	
    6ae6:	0c ef       	xor	r15,	r12	
    6ae8:	1c f3       	and	#1,	r12	;r3 As==01
    6aea:	07 20       	jnz	$+16     	;abs 0x6afa
    6aec:	2d 93       	cmp	#2,	r13	;r3 As==10
    6aee:	07 28       	jnc	$+16     	;abs 0x6afe
    6af0:	0b 4e       	mov	r14,	r11	
    6af2:	1b f3       	and	#1,	r11	;r3 As==01
    6af4:	2c 43       	mov	#2,	r12	;r3 As==10
    6af6:	0c 8b       	sub	r11,	r12	
    6af8:	03 3c       	jmp	$+8      	;abs 0x6b00
    6afa:	0c 4d       	mov	r13,	r12	
    6afc:	01 3c       	jmp	$+4      	;abs 0x6b00
    6afe:	1c 43       	mov	#1,	r12	;r3 As==01
    6b00:	0d 8c       	sub	r12,	r13	
    6b02:	0a 4c       	mov	r12,	r10	
    6b04:	09 4e       	mov	r14,	r9	
    6b06:	0b 4f       	mov	r15,	r11	
    6b08:	fb 49 00 00 	mov.b	@r9+,	0(r11)	;0x0000(r11)
    6b0c:	1b 53       	inc	r11		
    6b0e:	3a 53       	add	#-1,	r10	;r3 As==11
    6b10:	fb 23       	jnz	$-8      	;abs 0x6b08
    6b12:	0a 4f       	mov	r15,	r10	
    6b14:	0a 5c       	add	r12,	r10	
    6b16:	0e 5c       	add	r12,	r14	
    6b18:	01 3c       	jmp	$+4      	;abs 0x6b1c
    6b1a:	0a 4f       	mov	r15,	r10	
    6b1c:	0b 4d       	mov	r13,	r11	
    6b1e:	12 c3       	clrc			
    6b20:	0b 10       	rrc	r11		
    6b22:	0b 24       	jz	$+24     	;abs 0x6b3a
    6b24:	09 4b       	mov	r11,	r9	
    6b26:	08 4e       	mov	r14,	r8	
    6b28:	0c 4a       	mov	r10,	r12	
    6b2a:	bc 48 00 00 	mov	@r8+,	0(r12)	;0x0000(r12)
    6b2e:	2c 53       	incd	r12		
    6b30:	39 53       	add	#-1,	r9	;r3 As==11
    6b32:	fb 23       	jnz	$-8      	;abs 0x6b2a
    6b34:	0b 5b       	rla	r11		
    6b36:	0e 5b       	add	r11,	r14	
    6b38:	0a 5b       	add	r11,	r10	
    6b3a:	1d f3       	and	#1,	r13	;r3 As==01
    6b3c:	3c 24       	jz	$+122    	;abs 0x6bb6
    6b3e:	ea 4e 00 00 	mov.b	@r14,	0(r10)	;0x0000(r10)
    6b42:	39 3c       	jmp	$+116    	;abs 0x6bb6
    6b44:	0e 5d       	add	r13,	r14	
    6b46:	0c 4f       	mov	r15,	r12	
    6b48:	0c 5d       	add	r13,	r12	
    6b4a:	0b 4c       	mov	r12,	r11	
    6b4c:	0b de       	bis	r14,	r11	
    6b4e:	1b f3       	and	#1,	r11	;r3 As==01
    6b50:	1b 24       	jz	$+56     	;abs 0x6b88
    6b52:	0b 4c       	mov	r12,	r11	
    6b54:	0b ee       	xor	r14,	r11	
    6b56:	1b f3       	and	#1,	r11	;r3 As==01
    6b58:	06 20       	jnz	$+14     	;abs 0x6b66
    6b5a:	3d 90 03 00 	cmp	#3,	r13	;#0x0003
    6b5e:	03 28       	jnc	$+8      	;abs 0x6b66
    6b60:	0b 4e       	mov	r14,	r11	
    6b62:	1b f3       	and	#1,	r11	;r3 As==01
    6b64:	01 3c       	jmp	$+4      	;abs 0x6b68
    6b66:	0b 4d       	mov	r13,	r11	
    6b68:	0d 8b       	sub	r11,	r13	
    6b6a:	09 4e       	mov	r14,	r9	
    6b6c:	0a 4c       	mov	r12,	r10	
    6b6e:	08 4b       	mov	r11,	r8	
    6b70:	08 8c       	sub	r12,	r8	
    6b72:	3a 53       	add	#-1,	r10	;r3 As==11
    6b74:	39 53       	add	#-1,	r9	;r3 As==11
    6b76:	ea 49 00 00 	mov.b	@r9,	0(r10)	;0x0000(r10)
    6b7a:	07 4a       	mov	r10,	r7	
    6b7c:	07 58       	add	r8,	r7	
    6b7e:	f9 23       	jnz	$-12     	;abs 0x6b72
    6b80:	3b e3       	inv	r11		
    6b82:	1b 53       	inc	r11		
    6b84:	0c 5b       	add	r11,	r12	
    6b86:	0e 5b       	add	r11,	r14	
    6b88:	0b 4d       	mov	r13,	r11	
    6b8a:	12 c3       	clrc			
    6b8c:	0b 10       	rrc	r11		
    6b8e:	0e 24       	jz	$+30     	;abs 0x6bac
    6b90:	0a 4b       	mov	r11,	r10	
    6b92:	08 4e       	mov	r14,	r8	
    6b94:	09 4c       	mov	r12,	r9	
    6b96:	28 83       	decd	r8		
    6b98:	29 83       	decd	r9		
    6b9a:	a9 48 00 00 	mov	@r8,	0(r9)	;0x0000(r9)
    6b9e:	3a 53       	add	#-1,	r10	;r3 As==11
    6ba0:	fa 23       	jnz	$-10     	;abs 0x6b96
    6ba2:	0a 8b       	sub	r11,	r10	
    6ba4:	0b 4a       	mov	r10,	r11	
    6ba6:	0b 5b       	rla	r11		
    6ba8:	0e 5b       	add	r11,	r14	
    6baa:	0c 5b       	add	r11,	r12	
    6bac:	1d f3       	and	#1,	r13	;r3 As==01
    6bae:	03 24       	jz	$+8      	;abs 0x6bb6
    6bb0:	dc 4e ff ff ff ff 	mov.b	-1(r14),-1(r12)	;0xffff(r14), 0xffff(r12)
    6bb6:	37 41       	pop	r7		
    6bb8:	38 41       	pop	r8		
    6bba:	39 41       	pop	r9		
    6bbc:	3a 41       	pop	r10		
    6bbe:	3b 41       	pop	r11		
    6bc0:	30 41       	ret			

00006bc2 <memset>:
    6bc2:	0b 12       	push	r11		
    6bc4:	0a 12       	push	r10		
    6bc6:	09 12       	push	r9		
    6bc8:	08 12       	push	r8		
    6bca:	3d 90 06 00 	cmp	#6,	r13	;#0x0006
    6bce:	09 2c       	jc	$+20     	;abs 0x6be2
    6bd0:	0c 4f       	mov	r15,	r12	
    6bd2:	04 3c       	jmp	$+10     	;abs 0x6bdc
    6bd4:	cc 4e 00 00 	mov.b	r14,	0(r12)	;0x0000(r12)
    6bd8:	1c 53       	inc	r12		
    6bda:	3d 53       	add	#-1,	r13	;r3 As==11
    6bdc:	0d 93       	tst	r13		
    6bde:	fa 23       	jnz	$-10     	;abs 0x6bd4
    6be0:	20 3c       	jmp	$+66     	;abs 0x6c22
    6be2:	4e 4e       	mov.b	r14,	r14	
    6be4:	4b 4e       	mov.b	r14,	r11	
    6be6:	0b 93       	tst	r11		
    6be8:	03 24       	jz	$+8      	;abs 0x6bf0
    6bea:	0c 4b       	mov	r11,	r12	
    6bec:	8c 10       	swpb	r12		
    6bee:	0b dc       	bis	r12,	r11	
    6bf0:	1f b3       	bit	#1,	r15	;r3 As==01
    6bf2:	06 24       	jz	$+14     	;abs 0x6c00
    6bf4:	3d 53       	add	#-1,	r13	;r3 As==11
    6bf6:	cf 4e 00 00 	mov.b	r14,	0(r15)	;0x0000(r15)
    6bfa:	09 4f       	mov	r15,	r9	
    6bfc:	19 53       	inc	r9		
    6bfe:	01 3c       	jmp	$+4      	;abs 0x6c02
    6c00:	09 4f       	mov	r15,	r9	
    6c02:	0c 4d       	mov	r13,	r12	
    6c04:	12 c3       	clrc			
    6c06:	0c 10       	rrc	r12		
    6c08:	0a 49       	mov	r9,	r10	
    6c0a:	08 4c       	mov	r12,	r8	
    6c0c:	8a 4b 00 00 	mov	r11,	0(r10)	;0x0000(r10)
    6c10:	2a 53       	incd	r10		
    6c12:	38 53       	add	#-1,	r8	;r3 As==11
    6c14:	fb 23       	jnz	$-8      	;abs 0x6c0c
    6c16:	0c 5c       	rla	r12		
    6c18:	0c 59       	add	r9,	r12	
    6c1a:	1d f3       	and	#1,	r13	;r3 As==01
    6c1c:	02 24       	jz	$+6      	;abs 0x6c22
    6c1e:	cc 4e 00 00 	mov.b	r14,	0(r12)	;0x0000(r12)
    6c22:	38 41       	pop	r8		
    6c24:	39 41       	pop	r9		
    6c26:	3a 41       	pop	r10		
    6c28:	3b 41       	pop	r11		
    6c2a:	30 41       	ret			

00006c2c <_unexpected_>:
    6c2c:	00 13       	reti			

Disassembly of section .vectors:

0000ffe0 <__ivtbl_16>:
    ffe0:	0a 45 ae 68 0a 45 0a 45 bc 67 52 67 34 67 0a 45     .E.h.E.E.gRg4g.E
    fff0:	b8 69 5c 69 0a 45 0a 45 96 67 78 67 0a 45 00 40     .i\i.E.E.gxg.E.@
